dZ80 2.0, Copyright 1996-2002 by Mark Incley.

       Input file: fdc.rom
      Output file: (none)
Disassembly range: 4000h - 7fffh

Pass 1 of 1
4000 41        ld      b,c
4001 42        ld      b,d
4002 6f        ld      l,a
4003 57        ld      d,a
4004 76        halt    
4005 65        ld      h,l
4006 00        nop     
4007 00        nop     
4008 00        nop     
4009 00        nop     
400a 00        nop     
400b 00        nop     
400c 00        nop     
400d 00        nop     
400e 00        nop     
400f 00        nop     
4010 c32e75    jp      752eh
4013 c39679    jp      7996h
4016 c3d579    jp      79d5h
4019 c3397c    jp      7c39h
401c c39f7c    jp      7c9fh
401f c3f878    jp      78f8h
4022 c33a5b    jp      5b3ah
4025 37        scf     
4026 c3b160    jp      60b1h
4029 c30d62    jp      620dh
402c 00        nop     
402d c3b35f    jp      5fb3h
4030 2a4bf3    ld      hl,(0f34bh)
4033 c9        ret     
4034 dde5      push    ix
4036 dd21b700  ld      ix,00b7h
403a cdab40    call    40abh
403d dde1      pop     ix
403f 300a      jr      nc,404bh
4041 3e03      ld      a,03h
4043 3236f3    ld      (0f336h),a
4046 3237f3    ld      (0f337h),a
4049 a7        and     a
404a c9        ret     
404b 3a36f3    ld      a,(0f336h)
404e a7        and     a
404f 3a37f3    ld      a,(0f337h)
4052 c0        ret     nz
4053 dde5      push    ix
4055 dd219c00  ld      ix,009ch
4059 cdab40    call    40abh
405c dde1      pop     ix
405e c8        ret     z
405f 3eff      ld      a,0ffh
4061 3236f3    ld      (0f336h),a
4064 dde5      push    ix
4066 dd219f00  ld      ix,009fh
406a cdab40    call    40abh
406d dde1      pop     ix
406f 3237f3    ld      (0f337h),a
4072 c5        push    bc
4073 0600      ld      b,00h
4075 04        inc     b
4076 c1        pop     bc
4077 c9        ret     
4078 e5        push    hl
4079 2136f3    ld      hl,0f336h
407c af        xor     a
407d be        cp      (hl)
407e 77        ld      (hl),a
407f 23        inc     hl
4080 7e        ld      a,(hl)
4081 e1        pop     hl
4082 c0        ret     nz
4083 dde5      push    ix
4085 dd219f00  ld      ix,009fh
4089 cdab40    call    40abh
408c dde1      pop     ix
408e c9        ret     
408f dde5      push    ix
4091 dd21a200  ld      ix,00a2h
4095 cdab40    call    40abh
4098 dde1      pop     ix
409a c9        ret     
409b dde5      push    ix
409d dd21a500  ld      ix,00a5h
40a1 cdab40    call    40abh
40a4 dde1      pop     ix
40a6 c9        ret     
40a7 dd219b40  ld      ix,409bh
40ab fde5      push    iy
40ad fd2ac0fc  ld      iy,(0fcc0h)
40b1 cd1c00    call    001ch
40b4 fb        ei      
40b5 fde1      pop     iy
40b7 c9        ret     
40b8 3e0d      ld      a,0dh
40ba d3b4      out     (0b4h),a
40bc 3e0a      ld      a,0ah
40be d3b5      out     (0b5h),a
40c0 af        xor     a
40c1 d3b4      out     (0b4h),a
40c3 060f      ld      b,0fh
40c5 dbb5      in      a,(0b5h)
40c7 e60f      and     0fh
40c9 a8        xor     b
40ca d3b5      out     (0b5h),a
40cc 4f        ld      c,a
40cd 00        nop     
40ce dbb5      in      a,(0b5h)
40d0 e60f      and     0fh
40d2 b9        cp      c
40d3 c0        ret     nz
40d4 a8        xor     b
40d5 d3b5      out     (0b5h),a
40d7 10ec      djnz    41c5h
40d9 3eff      ld      a,0ffh
40db 3238f3    ld      (0f338h),a
40de 3e0d      ld      a,0dh
40e0 d3b4      out     (0b4h),a
40e2 3e09      ld      a,09h
40e4 d3b5      out     (0b5h),a
40e6 3e0a      ld      a,0ah
40e8 d3b4      out     (0b4h),a
40ea 3e01      ld      a,01h
40ec d3b5      out     (0b5h),a
40ee 3e0d      ld      a,0dh
40f0 d3b4      out     (0b4h),a
40f2 af        xor     a
40f3 d3b5      out     (0b5h),a
40f5 01000d    ld      bc,0d00h
40f8 79        ld      a,c
40f9 d3b4      out     (0b4h),a
40fb dbb5      in      a,(0b5h)
40fd f5        push    af
40fe 0c        inc     c
40ff 10f7      djnz    41f8h
4101 3e0e      ld      a,0eh
4103 d3b4      out     (0b4h),a
4105 af        xor     a
4106 d3b5      out     (0b5h),a
4108 060d      ld      b,0dh
410a 0d        dec     c
410b 79        ld      a,c
410c d3b4      out     (0b4h),a
410e f1        pop     af
410f d3b5      out     (0b5h),a
4111 10f7      djnz    420ah
4113 1839      jr      414eh
4115 223bf3    ld      (0f33bh),hl
4118 3a38f3    ld      a,(0f338h)
411b a7        and     a
411c c8        ret     z
411d 3a4af2    ld      a,(0f24ah)
4120 47        ld      b,a
4121 3a49f2    ld      a,(0f249h)
4124 4f        ld      c,a
4125 3a48f2    ld      a,(0f248h)
4128 57        ld      d,a
4129 1e07      ld      e,07h
412b cd5941    call    4159h
412e 1812      jr      4142h
4130 3a38f3    ld      a,(0f338h)
4133 a7        and     a
4134 c8        ret     z
4135 1e00      ld      e,00h
4137 cd5941    call    4159h
413a 3e0f      ld      a,0fh
413c d3b4      out     (0b4h),a
413e 3e02      ld      a,02h
4140 d3b5      out     (0b5h),a
4142 62        ld      h,d
4143 cd6041    call    4160h
4146 61        ld      h,c
4147 cd6041    call    4160h
414a 60        ld      h,b
414b cd6041    call    4160h
414e 3e0d      ld      a,0dh
4150 d3b4      out     (0b4h),a
4152 dbb5      in      a,(0b5h)
4154 f608      or      08h
4156 d3b5      out     (0b5h),a
4158 c9        ret     
4159 cd4e41    call    414eh
415c e604      and     04h
415e 18f6      jr      4256h
4160 af        xor     a
4161 2e08      ld      l,08h
4163 cb04      rlc     h
4165 8f        adc     a,a
4166 27        daa     
4167 2d        dec     l
4168 20f9      jr      nz,4263h
416a cd7141    call    4171h
416d 0f        rrca    
416e 0f        rrca    
416f 0f        rrca    
4170 0f        rrca    
4171 f5        push    af
4172 7b        ld      a,e
4173 1c        inc     e
4174 d3b4      out     (0b4h),a
4176 f1        pop     af
4177 18dd      jr      4256h
4179 3a38f3    ld      a,(0f338h)
417c a7        and     a
417d 47        ld      b,a
417e 4f        ld      c,a
417f 57        ld      d,a
4180 5f        ld      e,a
4181 2a3bf3    ld      hl,(0f33bh)
4184 c8        ret     z
4185 cd5941    call    4159h
4188 1e0d      ld      e,0dh
418a cdad41    call    41adh
418d cd2355    call    5523h
4190 cdad41    call    41adh
4193 3249f2    ld      (0f249h),a
4196 cdad41    call    41adh
4199 3248f2    ld      (0f248h),a
419c 1d        dec     e
419d cdad41    call    41adh
41a0 47        ld      b,a
41a1 cdad41    call    41adh
41a4 4f        ld      c,a
41a5 cdad41    call    41adh
41a8 cd4e41    call    414eh
41ab 37        scf     
41ac c9        ret     
41ad af        xor     a
41ae cdb541    call    41b5h
41b1 87        add     a,a
41b2 87        add     a,a
41b3 82        add     a,d
41b4 87        add     a,a
41b5 57        ld      d,a
41b6 1d        dec     e
41b7 7b        ld      a,e
41b8 d3b4      out     (0b4h),a
41ba dbb5      in      a,(0b5h)
41bc e60f      and     0fh
41be 82        add     a,d
41bf 57        ld      d,a
41c0 c9        ret     
41c1 204d      jr      nz,4210h
41c3 53        ld      d,e
41c4 58        ld      e,b
41c5 2d        dec     l
41c6 44        ld      b,h
41c7 4f        ld      c,a
41c8 53        ld      d,e
41c9 2076      jr      nz,4241h
41cb 65        ld      h,l
41cc 72        ld      (hl),d
41cd 2e20      ld      l,20h
41cf 322e32    ld      (322eh),a
41d2 2043      jr      nz,4217h
41d4 6f        ld      l,a
41d5 70        ld      (hl),b
41d6 79        ld      a,c
41d7 72        ld      (hl),d
41d8 69        ld      l,c
41d9 67        ld      h,a
41da 68        ld      l,b
41db 74        ld      (hl),h
41dc 2031      jr      nz,420fh
41de 39        add     hl,sp
41df 3834      jr      c,4215h
41e1 2062      jr      nz,4245h
41e3 79        ld      a,c
41e4 204d      jr      nz,4233h
41e6 69        ld      l,c
41e7 63        ld      h,e
41e8 72        ld      (hl),d
41e9 6f        ld      l,a
41ea 73        ld      (hl),e
41eb 6f        ld      l,a
41ec 66        ld      h,(hl)
41ed 74        ld      (hl),h
41ee 2006      jr      nz,41f6h
41f0 00        nop     
41f1 3e22      ld      a,22h
41f3 c9        ret     
41f4 dd5e13    ld      e,(ix+13h)
41f7 dd5614    ld      d,(ix+14h)
41fa cd52f2    call    0f252h
41fd d5        push    de
41fe 5d        ld      e,l
41ff 54        ld      d,h
4200 cb3c      srl     h
4202 cb1d      rr      l
4204 1f        rra     
4205 19        add     hl,de
4206 d1        pop     de
4207 19        add     hl,de
4208 17        rla     
4209 7e        ld      a,(hl)
420a 23        inc     hl
420b 66        ld      h,(hl)
420c 300c      jr      nc,421ah
420e cb3c      srl     h
4210 1f        rra     
4211 cb3c      srl     h
4213 1f        rra     
4214 cb3c      srl     h
4216 1f        rra     
4217 cb3c      srl     h
4219 1f        rra     
421a 6f        ld      l,a
421b 7c        ld      a,h
421c e60f      and     0fh
421e 67        ld      h,a
421f b5        or      l
4220 c9        ret     
4221 d5        push    de
4222 5d        ld      e,l
4223 54        ld      d,h
4224 cb3c      srl     h
4226 cb1d      rr      l
4228 1f        rra     
4229 19        add     hl,de
422a d1        pop     de
422b 19        add     hl,de
422c 17        rla     
422d 3018      jr      nc,4247h
422f cb21      sla     c
4231 cb10      rl      b
4233 cb21      sla     c
4235 cb10      rl      b
4237 cb21      sla     c
4239 cb10      rl      b
423b cb21      sla     c
423d cb10      rl      b
423f 7e        ld      a,(hl)
4240 e60f      and     0fh
4242 b1        or      c
4243 77        ld      (hl),a
4244 23        inc     hl
4245 70        ld      (hl),b
4246 c9        ret     
4247 71        ld      (hl),c
4248 23        inc     hl
4249 7e        ld      a,(hl)
424a e6f0      and     0f0h
424c b0        or      b
424d 77        ld      (hl),a
424e c9        ret     
424f 11b9f2    ld      de,0f2b9h
4252 1a        ld      a,(de)
4253 be        cp      (hl)
4254 23        inc     hl
4255 13        inc     de
4256 c0        ret     nz
4257 10f9      djnz    4352h
4259 c9        ret     
425a cd55f2    call    0f255h
425d 21f7f1    ld      hl,0f1f7h
4260 0e05      ld      c,05h
4262 0604      ld      b,04h
4264 cd4f42    call    424fh
4267 202f      jr      nz,4298h
4269 0604      ld      b,04h
426b 1a        ld      a,(de)
426c 13        inc     de
426d fe20      cp      20h
426f 2032      jr      nz,42a3h
4271 10f8      djnz    436bh
4273 79        ld      a,c
4274 ed44      neg     
4276 3216f2    ld      (0f216h),a
4279 21b9f2    ld      hl,0f2b9h
427c 110bf2    ld      de,0f20bh
427f 010400    ld      bc,0004h
4282 edb0      ldir    
4284 cd9654    call    5496h
4287 ed4323f2  ld      (0f223h),bc
428b ed5321f2  ld      (0f221h),de
428f 210bf2    ld      hl,0f20bh
4292 e5        push    hl
4293 fde1      pop     iy
4295 f601      or      01h
4297 c9        ret     
4298 05        dec     b
4299 7d        ld      a,l
429a 80        add     a,b
429b 6f        ld      l,a
429c 7c        ld      a,h
429d ce00      adc     a,00h
429f 67        ld      h,a
42a0 0d        dec     c
42a1 20bf      jr      nz,4362h
42a3 37        scf     
42a4 c9        ret     
42a5 d5        push    de
42a6 210e00    ld      hl,000eh
42a9 19        add     hl,de
42aa 3600      ld      (hl),00h
42ac cdb142    call    42b1h
42af d1        pop     de
42b0 c9        ret     
42b1 cd0e44    call    440eh
42b4 d8        ret     c
42b5 cd5a42    call    425ah
42b8 d0        ret     nc
42b9 cdd344    call    44d3h
42bc cd58f2    call    0f258h
42bf cd0e43    call    430eh
42c2 d8        ret     c
42c3 7e        ld      a,(hl)
42c4 b7        or      a
42c5 2835      jr      z,42fch
42c7 fee5      cp      0e5h
42c9 2831      jr      z,42fch
42cb e5        push    hl
42cc 060b      ld      b,0bh
42ce 11b9f2    ld      de,0f2b9h
42d1 cd5242    call    4252h
42d4 2806      jr      z,42dch
42d6 fe3f      cp      3fh
42d8 201b      jr      nz,42f5h
42da 10f5      djnz    43d1h
42dc e1        pop     hl
42dd e5        push    hl
42de fde1      pop     iy
42e0 3ac4f2    ld      a,(0f2c4h)
42e3 ee80      xor     80h
42e5 cb7f      bit     7,a
42e7 c8        ret     z
42e8 fd7e0b    ld      a,(iy+0bh)
42eb e61e      and     1eh
42ed c8        ret     z
42ee 3adcf2    ld      a,(0f2dch)
42f1 b7        or      a
42f2 c0        ret     nz
42f3 1801      jr      42f6h
42f5 e1        pop     hl
42f6 cd4843    call    4348h
42f9 30c8      jr      nc,43c3h
42fb c9        ret     
42fc 3afef2    ld      a,(0f2feh)
42ff 3c        inc     a
4300 2006      jr      nz,4308h
4302 3ab8f2    ld      a,(0f2b8h)
4305 32fef2    ld      (0f2feh),a
4308 7e        ld      a,(hl)
4309 b7        or      a
430a 20ea      jr      nz,43f6h
430c 37        scf     
430d c9        ret     
430e 3ab8f2    ld      a,(0f2b8h)
4311 3c        inc     a
4312 ddbe0b    cp      (ix+0bh)
4315 3050      jr      nc,4367h
4317 cd5bf2    call    0f25bh
431a 32b8f2    ld      (0f2b8h),a
431d 4f        ld      c,a
431e dda604    and     (ix+04h)
4321 6f        ld      l,a
4322 2600      ld      h,00h
4324 29        add     hl,hl
4325 29        add     hl,hl
4326 29        add     hl,hl
4327 29        add     hl,hl
4328 29        add     hl,hl
4329 ed5b51f3  ld      de,(0f351h)
432d 19        add     hl,de
432e dd4605    ld      b,(ix+05h)
4331 cb39      srl     c
4333 10fc      djnz    4431h
4335 3a45f2    ld      a,(0f245h)
4338 b9        cp      c
4339 2007      jr      nz,4342h
433b 3a46f2    ld      a,(0f246h)
433e ddbe00    cp      (ix+00h)
4341 c8        ret     z
4342 e5        push    hl
4343 cda446    call    46a4h
4346 e1        pop     hl
4347 c9        ret     
4348 cd5ef2    call    0f25eh
434b 3ab8f2    ld      a,(0f2b8h)
434e 3c        inc     a
434f ddbe0b    cp      (ix+0bh)
4352 3013      jr      nc,4367h
4354 32b8f2    ld      (0f2b8h),a
4357 112000    ld      de,0020h
435a 19        add     hl,de
435b dda604    and     (ix+04h)
435e c0        ret     nz
435f 0c        inc     c
4360 cda446    call    46a4h
4363 2a51f3    ld      hl,(0f351h)
4366 c9        ret     
4367 cd4347    call    4743h
436a 37        scf     
436b c9        ret     
436c cd0e44    call    440eh
436f d4b542    call    nc,42b5h
4372 3eff      ld      a,0ffh
4374 d8        ret     c
4375 c0        ret     nz
4376 3ee5      ld      a,0e5h
4378 323cf2    ld      (0f23ch),a
437b 77        ld      (hl),a
437c fd6e1a    ld      l,(iy+1ah)
437f fd661b    ld      h,(iy+1bh)
4382 7c        ld      a,h
4383 b5        or      l
4384 c49b4f    call    nz,4f9bh
4387 cdbc42    call    42bch
438a 30ea      jr      nc,4476h
438c cd0344    call    4403h
438f c3cf45    jp      45cfh
4392 cd0e44    call    440eh
4395 3874      jr      c,440bh
4397 110500    ld      de,0005h
439a 19        add     hl,de
439b 11c5f2    ld      de,0f2c5h
439e cdf4f1    call    0f1f4h
43a1 d4b542    call    nc,42b5h
43a4 3865      jr      c,440bh
43a6 2063      jr      nz,440bh
43a8 21b9f2    ld      hl,0f2b9h
43ab 11d0f2    ld      de,0f2d0h
43ae 010c00    ld      bc,000ch
43b1 edb0      ldir    
43b3 21c5f2    ld      hl,0f2c5h
43b6 11b9f2    ld      de,0f2b9h
43b9 060b      ld      b,0bh
43bb 7e        ld      a,(hl)
43bc fe3f      cp      3fh
43be 2003      jr      nz,43c3h
43c0 fd7e00    ld      a,(iy+00h)
43c3 12        ld      (de),a
43c4 23        inc     hl
43c5 13        inc     de
43c6 fd23      inc     iy
43c8 10f1      djnz    44bbh
43ca 3e80      ld      a,80h
43cc 12        ld      (de),a
43cd cd5a42    call    425ah
43d0 3036      jr      nc,4408h
43d2 3ab8f2    ld      a,(0f2b8h)
43d5 f5        push    af
43d6 3eff      ld      a,0ffh
43d8 32b8f2    ld      (0f2b8h),a
43db cdbc42    call    42bch
43de c1        pop     bc
43df 3027      jr      nc,4408h
43e1 78        ld      a,b
43e2 cd1743    call    4317h
43e5 eb        ex      de,hl
43e6 21b9f2    ld      hl,0f2b9h
43e9 010b00    ld      bc,000bh
43ec edb0      ldir    
43ee 3eff      ld      a,0ffh
43f0 323cf2    ld      (0f23ch),a
43f3 21d0f2    ld      hl,0f2d0h
43f6 11b9f2    ld      de,0f2b9h
43f9 010c00    ld      bc,000ch
43fc edb0      ldir    
43fe cdbc42    call    42bch
4401 30b0      jr      nc,44b3h
4403 cd4347    call    4743h
4406 af        xor     a
4407 c9        ret     
4408 cd4347    call    4743h
440b 3eff      ld      a,0ffh
440d c9        ret     
440e cd61f2    call    0f261h
4411 af        xor     a
4412 32dcf2    ld      (0f2dch),a
4415 eb        ex      de,hl
4416 7e        ld      a,(hl)
4417 23        inc     hl
4418 32c4f2    ld      (0f2c4h),a
441b e60f      and     0fh
441d cd2744    call    4427h
4420 d8        ret     c
4421 11b9f2    ld      de,0f2b9h
4424 c3f4f1    jp      0f1f4h
4427 4f        ld      c,a
4428 3a47f3    ld      a,(0f347h)
442b b9        cp      c
442c d8        ret     c
442d 79        ld      a,c
442e 3d        dec     a
442f f23544    jp      p,4435h
4432 3a47f2    ld      a,(0f247h)
4435 32e1f2    ld      (0f2e1h),a
4438 c9        ret     
4439 fd7e1f    ld      a,(iy+1fh)
443c b7        or      a
443d 201f      jr      nz,445eh
443f fd7e1c    ld      a,(iy+1ch)
4442 fd4e1d    ld      c,(iy+1dh)
4445 fd461e    ld      b,(iy+1eh)
4448 87        add     a,a
4449 cb11      rl      c
444b cb10      rl      b
444d 380f      jr      c,445eh
444f b7        or      a
4450 2805      jr      z,4457h
4452 03        inc     bc
4453 78        ld      a,b
4454 b1        or      c
4455 2807      jr      z,445eh
4457 79        ld      a,c
4458 cbb9      res     7,c
445a 87        add     a,a
445b cb10      rl      b
445d d0        ret     nc
445e 017fff    ld      bc,0ff7fh
4461 c9        ret     
4462 cda542    call    42a5h
4465 38a4      jr      c,450bh
4467 cd3944    call    4439h
446a 3a0cf3    ld      a,(0f30ch)
446d 04        inc     b
446e b8        cp      b
446f 309a      jr      nc,450bh
4471 cd64f2    call    0f264h
4474 eb        ex      de,hl
4475 010f00    ld      bc,000fh
4478 09        add     hl,bc
4479 cd3944    call    4439h
447c 3a0cf3    ld      a,(0f30ch)
447f b8        cp      b
4480 2806      jr      z,4488h
4482 0e80      ld      c,80h
4484 3802      jr      c,4488h
4486 0e00      ld      c,00h
4488 71        ld      (hl),c
4489 23        inc     hl
448a eb        ex      de,hl
448b 011c00    ld      bc,001ch
448e 09        add     hl,bc
448f 0e04      ld      c,04h
4491 edb0      ldir    
4493 01f8ff    ld      bc,0fff8h
4496 09        add     hl,bc
4497 eda0      ldi     
4499 eda0      ldi     
449b 0efc      ld      c,0fch
449d 09        add     hl,bc
449e eda0      ldi     
44a0 eda0      ldi     
44a2 fd7e0b    ld      a,(iy+0bh)
44a5 cb7f      bit     7,a
44a7 2005      jr      nz,44aeh
44a9 dd7e00    ld      a,(ix+00h)
44ac f640      or      40h
44ae 12        ld      (de),a
44af 13        inc     de
44b0 3ab8f2    ld      a,(0f2b8h)
44b3 12        ld      (de),a
44b4 13        inc     de
44b5 fd7e1a    ld      a,(iy+1ah)
44b8 12        ld      (de),a
44b9 13        inc     de
44ba 13        inc     de
44bb 12        ld      (de),a
44bc 1b        dec     de
44bd fd7e1b    ld      a,(iy+1bh)
44c0 12        ld      (de),a
44c1 13        inc     de
44c2 13        inc     de
44c3 12        ld      (de),a
44c4 13        inc     de
44c5 af        xor     a
44c6 12        ld      (de),a
44c7 13        inc     de
44c8 12        ld      (de),a
44c9 c9        ret     
44ca 4f        ld      c,a
44cb 3ae1f2    ld      a,(0f2e1h)
44ce cd0a47    call    470ah
44d1 1808      jr      44dbh
44d3 3eff      ld      a,0ffh
44d5 32b8f2    ld      (0f2b8h),a
44d8 32fef2    ld      (0f2feh),a
44db cd67f2    call    0f267h
44de cd5345    call    4553h
44e1 3ae1f2    ld      a,(0f2e1h)
44e4 dd4e01    ld      c,(ix+01h)
44e7 0600      ld      b,00h
44e9 b7        or      a
44ea cd6760    call    6067h
44ed 38db      jr      c,45cah
44ef cd3345    call    4533h
44f2 dd6e13    ld      l,(ix+13h)
44f5 dd6614    ld      h,(ix+14h)
44f8 2b        dec     hl
44f9 78        ld      a,b
44fa b6        or      (hl)
44fb 3ae1f2    ld      a,(0f2e1h)
44fe 2a41f2    ld      hl,(0f241h)
4501 fa0a45    jp      m,450ah
4504 c0        ret     nz
4505 bd        cp      l
4506 200b      jr      nz,4513h
4508 25        dec     h
4509 c8        ret     z
450a 95        sub     l
450b 2006      jr      nz,4513h
450d 6f        ld      l,a
450e 67        ld      h,a
450f 2d        dec     l
4510 2241f2    ld      (0f241h),hl
4513 3eff      ld      a,0ffh
4515 3246f2    ld      (0f246h),a
4518 cdfa45    call    45fah
451b 2b        dec     hl
451c 3600      ld      (hl),00h
451e 23        inc     hl
451f f5        push    af
4520 cdd746    call    46d7h
4523 3819      jr      c,453eh
4525 f1        pop     af
4526 46        ld      b,(hl)
4527 3ae1f2    ld      a,(0f2e1h)
452a dd4e01    ld      c,(ix+01h)
452d dde5      push    ix
452f e1        pop     hl
4530 cd6f60    call    606fh
4533 e5        push    hl
4534 dde1      pop     ix
4536 eb        ex      de,hl
4537 cd6145    call    4561h
453a 73        ld      (hl),e
453b 23        inc     hl
453c 72        ld      (hl),d
453d c9        ret     
453e 7b        ld      a,e
453f 81        add     a,c
4540 5f        ld      e,a
4541 3001      jr      nc,4544h
4543 14        inc     d
4544 f1        pop     af
4545 41        ld      b,c
4546 3d        dec     a
4547 20d6      jr      nz,461fh
4549 cdfa45    call    45fah
454c e5        push    hl
454d cdc546    call    46c5h
4550 e1        pop     hl
4551 18d3      jr      4626h
4553 cd6af2    call    0f26ah
4556 cd6145    call    4561h
4559 7e        ld      a,(hl)
455a 23        inc     hl
455b 66        ld      h,(hl)
455c 6f        ld      l,a
455d e5        push    hl
455e dde1      pop     ix
4560 c9        ret     
4561 3ae1f2    ld      a,(0f2e1h)
4564 2155f3    ld      hl,0f355h
4567 87        add     a,a
4568 85        add     a,l
4569 6f        ld      l,a
456a d0        ret     nc
456b 24        inc     h
456c c9        ret     
456d 00        nop     
456e 00        nop     
456f d5        push    de
4570 fde1      pop     iy
4572 cd0e44    call    440eh
4575 3eff      ld      a,0ffh
4577 d8        ret     c
4578 fd7e18    ld      a,(iy+18h)
457b e6c0      and     0c0h
457d 3e00      ld      a,00h
457f c0        ret     nz
4580 3ae1f2    ld      a,(0f2e1h)
4583 2a41f2    ld      hl,(0f241h)
4586 bd        cp      l
4587 cc2d47    call    z,472dh
458a cd5345    call    4553h
458d fd7e19    ld      a,(iy+19h)
4590 cd1743    call    4317h
4593 060b      ld      b,0bh
4595 cd4f42    call    424fh
4598 2054      jr      nz,45eeh
459a fde5      push    iy
459c d1        pop     de
459d 0e0b      ld      c,0bh
459f 09        add     hl,bc
45a0 eb        ex      de,hl
45a1 0e16      ld      c,16h
45a3 09        add     hl,bc
45a4 eda0      ldi     
45a6 eda0      ldi     
45a8 01fcff    ld      bc,0fffch
45ab 09        add     hl,bc
45ac eda0      ldi     
45ae eda0      ldi     
45b0 010400    ld      bc,0004h
45b3 09        add     hl,bc
45b4 eda0      ldi     
45b6 eda0      ldi     
45b8 01f4ff    ld      bc,0fff4h
45bb 09        add     hl,bc
45bc 010400    ld      bc,0004h
45bf edb0      ldir    
45c1 cd4847    call    4748h
45c4 dd6e13    ld      l,(ix+13h)
45c7 dd6614    ld      h,(ix+14h)
45ca 2b        dec     hl
45cb 7e        ld      a,(hl)
45cc fe01      cp      01h
45ce c0        ret     nz
45cf cd6df2    call    0f26dh
45d2 cdfa45    call    45fah
45d5 2b        dec     hl
45d6 3600      ld      (hl),00h
45d8 23        inc     hl
45d9 f5        push    af
45da d5        push    de
45db c5        push    bc
45dc e5        push    hl
45dd cd5547    call    4755h
45e0 e1        pop     hl
45e1 c1        pop     bc
45e2 d1        pop     de
45e3 7b        ld      a,e
45e4 80        add     a,b
45e5 5f        ld      e,a
45e6 3001      jr      nc,45e9h
45e8 14        inc     d
45e9 f1        pop     af
45ea 3d        dec     a
45eb 20ec      jr      nz,46d9h
45ed c9        ret     
45ee dd6e13    ld      l,(ix+13h)
45f1 dd6614    ld      h,(ix+14h)
45f4 2b        dec     hl
45f5 3600      ld      (hl),00h
45f7 3eff      ld      a,0ffh
45f9 c9        ret     
45fa dd7e0a    ld      a,(ix+0ah)
45fd dd6e13    ld      l,(ix+13h)
4600 dd6614    ld      h,(ix+14h)
4603 dd4610    ld      b,(ix+10h)
4606 dd5e08    ld      e,(ix+08h)
4609 dd5609    ld      d,(ix+09h)
460c c9        ret     
460d dd8611    add     a,(ix+11h)
4610 5f        ld      e,a
4611 dd5612    ld      d,(ix+12h)
4614 3001      jr      nc,4617h
4616 14        inc     d
4617 2a51f3    ld      hl,(0f351h)
461a 0601      ld      b,01h
461c c9        ret     
461d d5        push    de
461e cd0e44    call    440eh
4621 382a      jr      c,464dh
4623 23        inc     hl
4624 23        inc     hl
4625 3600      ld      (hl),00h
4627 21b9f2    ld      hl,0f2b9h
462a 3e3f      ld      a,3fh
462c 010b00    ld      bc,000bh
462f edb1      cpir    
4631 281a      jr      z,464dh
4633 cdb542    call    42b5h
4636 3019      jr      nc,4651h
4638 3afef2    ld      a,(0f2feh)
463b feff      cp      0ffh
463d 280e      jr      z,464dh
463f cd1743    call    4317h
4642 e5        push    hl
4643 fde1      pop     iy
4645 1822      jr      4669h
4647 fdcb0b7e  bit     7,(iy+0bh)
464b 2050      jr      nz,469dh
464d d1        pop     de
464e 3eff      ld      a,0ffh
4650 c9        ret     
4651 20f4      jr      nz,4747h
4653 3a0cf3    ld      a,(0f30ch)
4656 b7        or      a
4657 2044      jr      nz,469dh
4659 fd6e1a    ld      l,(iy+1ah)
465c fd661b    ld      h,(iy+1bh)
465f 7c        ld      a,h
4660 b5        or      l
4661 2806      jr      z,4669h
4663 cd9b4f    call    4f9bh
4666 cdcf45    call    45cfh
4669 fde5      push    iy
466b d1        pop     de
466c 21b9f2    ld      hl,0f2b9h
466f 010b00    ld      bc,000bh
4672 edb0      ldir    
4674 7e        ld      a,(hl)
4675 17        rla     
4676 3e00      ld      a,00h
4678 3002      jr      nc,467ch
467a 3e06      ld      a,06h
467c 12        ld      (de),a
467d 13        inc     de
467e eb        ex      de,hl
467f 060a      ld      b,0ah
4681 af        xor     a
4682 77        ld      (hl),a
4683 23        inc     hl
4684 10fc      djnz    4782h
4686 e5        push    hl
4687 cd9654    call    5496h
468a e1        pop     hl
468b 73        ld      (hl),e
468c 23        inc     hl
468d 72        ld      (hl),d
468e 23        inc     hl
468f 71        ld      (hl),c
4690 23        inc     hl
4691 70        ld      (hl),b
4692 23        inc     hl
4693 af        xor     a
4694 0606      ld      b,06h
4696 77        ld      (hl),a
4697 23        inc     hl
4698 10fc      djnz    4796h
469a cd4847    call    4748h
469d fde5      push    iy
469f e1        pop     hl
46a0 d1        pop     de
46a1 c37144    jp      4471h
46a4 c5        push    bc
46a5 cd4347    call    4743h
46a8 c1        pop     bc
46a9 dd4600    ld      b,(ix+00h)
46ac ed4345f2  ld      (0f245h),bc
46b0 c5        push    bc
46b1 79        ld      a,c
46b2 cd0d46    call    460dh
46b5 cdc546    call    46c5h
46b8 c1        pop     bc
46b9 c9        ret     
46ba 44        ld      b,h
46bb 7d        ld      a,l
46bc 32e1f2    ld      (0f2e1h),a
46bf cd5345    call    4553h
46c2 2a3df2    ld      hl,(0f23dh)
46c5 cd70f2    call    0f270h
46c8 af        xor     a
46c9 32fff2    ld      (0f2ffh),a
46cc cdd746    call    46d7h
46cf d0        ret     nc
46d0 cde846    call    46e8h
46d3 3d        dec     a
46d4 28ef      jr      z,47c5h
46d6 c9        ret     
46d7 dd7e00    ld      a,(ix+00h)
46da dd4e01    ld      c,(ix+01h)
46dd e5        push    hl
46de d5        push    de
46df c5        push    bc
46e0 cd5260    call    6052h
46e3 d1        pop     de
46e4 4a        ld      c,d
46e5 d1        pop     de
46e6 e1        pop     hl
46e7 c9        ret     
46e8 f5        push    af
46e9 79        ld      a,c
46ea 90        sub     b
46eb 4f        ld      c,a
46ec c5        push    bc
46ed 0600      ld      b,00h
46ef eb        ex      de,hl
46f0 09        add     hl,bc
46f1 e5        push    hl
46f2 d5        push    de
46f3 dd5e02    ld      e,(ix+02h)
46f6 dd5603    ld      d,(ix+03h)
46f9 cd1649    call    4916h
46fc e1        pop     hl
46fd d1        pop     de
46fe 09        add     hl,bc
46ff c1        pop     bc
4700 f1        pop     af
4701 4f        ld      c,a
4702 3afff2    ld      a,(0f2ffh)
4705 b1        or      c
4706 4f        ld      c,a
4707 dd7e00    ld      a,(ix+00h)
470a cd73f2    call    0f273h
470d c5        push    bc
470e d5        push    de
470f e5        push    hl
4710 2a23f3    ld      hl,(0f323h)
4713 cde8f1    call    0f1e8h
4716 79        ld      a,c
4717 e1        pop     hl
4718 d1        pop     de
4719 c1        pop     bc
471a fe02      cp      02h
471c c0        ret     nz
471d c3e2f1    jp      0f1e2h
4720 44        ld      b,h
4721 7d        ld      a,l
4722 32e1f2    ld      (0f2e1h),a
4725 cd5345    call    4553h
4728 2a3df2    ld      hl,(0f23dh)
472b 1828      jr      4755h
472d 2142f2    ld      hl,0f242h
4730 af        xor     a
4731 be        cp      (hl)
4732 77        ld      (hl),a
4733 c8        ret     z
4734 dd2a43f2  ld      ix,(0f243h)
4738 2a4ff3    ld      hl,(0f34fh)
473b 0601      ld      b,01h
473d ed5b3ff2  ld      de,(0f23fh)
4741 1812      jr      4755h
4743 3a3cf2    ld      a,(0f23ch)
4746 b7        or      a
4747 c8        ret     z
4748 cd76f2    call    0f276h
474b af        xor     a
474c 323cf2    ld      (0f23ch),a
474f 3a45f2    ld      a,(0f245h)
4752 cd0d46    call    460dh
4755 cd79f2    call    0f279h
4758 3e01      ld      a,01h
475a 32fff2    ld      (0f2ffh),a
475d dd7e00    ld      a,(ix+00h)
4760 dd4e01    ld      c,(ix+01h)
4763 e5        push    hl
4764 d5        push    de
4765 c5        push    bc
4766 cd5460    call    6054h
4769 d1        pop     de
476a 4a        ld      c,d
476b d1        pop     de
476c e1        pop     hl
476d d0        ret     nc
476e cde846    call    46e8h
4771 3d        dec     a
4772 28e1      jr      z,4855h
4774 c9        ret     
4775 cdf84e    call    4ef8h
4778 cd234b    call    4b23h
477b 1806      jr      4783h
477d cdf84e    call    4ef8h
4780 cda34c    call    4ca3h
4783 cd6a48    call    486ah
4786 1814      jr      479ch
4788 cd5748    call    4857h
478b cd234b    call    4b23h
478e 1809      jr      4799h
4790 fde5      push    iy
4792 d1        pop     de
4793 cd5748    call    4857h
4796 cda34c    call    4ca3h
4799 cd4448    call    4844h
479c 7d        ld      a,l
479d e67f      and     7fh
479f fd7720    ld      (iy+20h),a
47a2 cb25      sla     l
47a4 cb14      rl      h
47a6 fd740c    ld      (iy+0ch),h
47a9 cb13      rl      e
47ab fd730e    ld      (iy+0eh),e
47ae 3adef2    ld      a,(0f2deh)
47b1 c9        ret     
47b2 af        xor     a
47b3 3206f3    ld      (0f306h),a
47b6 cd5a48    call    485ah
47b9 cd234b    call    4b23h
47bc 180a      jr      47c8h
47be af        xor     a
47bf 3206f3    ld      (0f306h),a
47c2 cd5a48    call    485ah
47c5 cda34c    call    4ca3h
47c8 cd6a48    call    486ah
47cb cd4448    call    4844h
47ce 69        ld      l,c
47cf 60        ld      h,b
47d0 c9        ret     
47d1 d5        push    de
47d2 fde1      pop     iy
47d4 fd7e10    ld      a,(iy+10h)
47d7 fd4e11    ld      c,(iy+11h)
47da fd4612    ld      b,(iy+12h)
47dd fd5e13    ld      e,(iy+13h)
47e0 87        add     a,a
47e1 cb11      rl      c
47e3 cb10      rl      b
47e5 cb13      rl      e
47e7 b7        or      a
47e8 2806      jr      z,47f0h
47ea 03        inc     bc
47eb 78        ld      a,b
47ec b1        or      c
47ed 2001      jr      nz,47f0h
47ef 1c        inc     e
47f0 fd6e21    ld      l,(iy+21h)
47f3 fd6622    ld      h,(iy+22h)
47f6 ed42      sbc     hl,bc
47f8 2896      jr      z,4890h
47fa fd7e23    ld      a,(iy+23h)
47fd 9b        sbc     a,e
47fe 3890      jr      c,4890h
4800 e5        push    hl
4801 cd9047    call    4790h
4804 d1        pop     de
4805 b7        or      a
4806 c0        ret     nz
4807 2a3df2    ld      hl,(0f23dh)
480a e5        push    hl
480b 2a51f3    ld      hl,(0f351h)
480e 223df2    ld      (0f23dh),hl
4811 0680      ld      b,80h
4813 77        ld      (hl),a
4814 23        inc     hl
4815 10fc      djnz    4913h
4817 3d        dec     a
4818 3246f2    ld      (0f246h),a
481b fd6e21    ld      l,(iy+21h)
481e fd6622    ld      h,(iy+22h)
4821 ed52      sbc     hl,de
4823 4d        ld      c,l
4824 44        ld      b,h
4825 eb        ex      de,hl
4826 1600      ld      d,00h
4828 fd7e23    ld      a,(iy+23h)
482b 9a        sbc     a,d
482c 5f        ld      e,a
482d e5        push    hl
482e 210100    ld      hl,0001h
4831 cda34c    call    4ca3h
4834 cd6a48    call    486ah
4837 4d        ld      c,l
4838 44        ld      b,h
4839 e1        pop     hl
483a 2b        dec     hl
483b 7c        ld      a,h
483c b5        or      l
483d 20ee      jr      nz,492dh
483f e1        pop     hl
4840 223df2    ld      (0f23dh),hl
4843 c9        ret     
4844 3adef2    ld      a,(0f2deh)
4847 fd7521    ld      (iy+21h),l
484a fd7422    ld      (iy+22h),h
484d fd7323    ld      (iy+23h),e
4850 14        inc     d
4851 15        dec     d
4852 c8        ret     z
4853 fd7224    ld      (iy+24h),d
4856 c9        ret     
4857 210100    ld      hl,0001h
485a d5        push    de
485b fde1      pop     iy
485d fd4e21    ld      c,(iy+21h)
4860 fd4622    ld      b,(iy+22h)
4863 fd5e23    ld      e,(iy+23h)
4866 fd5624    ld      d,(iy+24h)
4869 c9        ret     
486a c8        ret     z
486b 23        inc     hl
486c 7c        ld      a,h
486d b5        or      l
486e c0        ret     nz
486f 13        inc     de
4870 c9        ret     
4871 e1        pop     hl
4872 69        ld      l,c
4873 60        ld      h,b
4874 3e01      ld      a,01h
4876 32def2    ld      (0f2deh),a
4879 af        xor     a
487a 4f        ld      c,a
487b 47        ld      b,a
487c c9        ret     
487d 22e8f2    ld      (0f2e8h),hl
4880 ed43e4f2  ld      (0f2e4h),bc
4884 ed53e6f2  ld      (0f2e6h),de
4888 fd7e00    ld      a,(iy+00h)
488b cd2744    call    4427h
488e 38e1      jr      c,4971h
4890 118000    ld      de,0080h
4893 3a06f3    ld      a,(0f306h)
4896 b7        or      a
4897 200f      jr      nz,48a8h
4899 fd7e0e    ld      a,(iy+0eh)
489c fd560f    ld      d,(iy+0fh)
489f 5f        ld      e,a
48a0 b2        or      d
48a1 2005      jr      nz,48a8h
48a3 1e80      ld      e,80h
48a5 fd730e    ld      (iy+0eh),e
48a8 14        inc     d
48a9 15        dec     d
48aa 2005      jr      nz,48b1h
48ac 7b        ld      a,e
48ad fe40      cp      40h
48af 3804      jr      c,48b5h
48b1 af        xor     a
48b2 32e7f2    ld      (0f2e7h),a
48b5 2a3df2    ld      hl,(0f23dh)
48b8 22e2f2    ld      (0f2e2h),hl
48bb af        xor     a
48bc 32def2    ld      (0f2deh),a
48bf 32dff2    ld      (0f2dfh),a
48c2 ed4be8f2  ld      bc,(0f2e8h)
48c6 cd1649    call    4916h
48c9 fd7e18    ld      a,(iy+18h)
48cc b7        or      a
48cd f8        ret     m
48ce c5        push    bc
48cf cd5345    call    4553h
48d2 ed4be4f2  ld      bc,(0f2e4h)
48d6 cd1649    call    4916h
48d9 ed43f4f2  ld      (0f2f4h),bc
48dd c5        push    bc
48de ed4be6f2  ld      bc,(0f2e6h)
48e2 cd1c49    call    491ch
48e5 ed43f6f2  ld      (0f2f6h),bc
48e9 60        ld      h,b
48ea 69        ld      l,c
48eb c1        pop     bc
48ec dd5e02    ld      e,(ix+02h)
48ef dd5603    ld      d,(ix+03h)
48f2 cd3249    call    4932h
48f5 22f2f2    ld      (0f2f2h),hl
48f8 ed43eef2  ld      (0f2eeh),bc
48fc dd7e06    ld      a,(ix+06h)
48ff a1        and     c
4900 32ddf2    ld      (0f2ddh),a
4903 dd7e07    ld      a,(ix+07h)
4906 3d        dec     a
4907 2806      jr      z,490fh
4909 cb38      srl     b
490b cb19      rr      c
490d 18f7      jr      4a06h
490f ed43ecf2  ld      (0f2ech),bc
4913 c1        pop     bc
4914 af        xor     a
4915 c9        ret     
4916 cd7cf2    call    0f27ch
4919 210000    ld      hl,0000h
491c 78        ld      a,b
491d 0611      ld      b,11h
491f 1807      jr      4928h
4921 3001      jr      nc,4924h
4923 19        add     hl,de
4924 cb1c      rr      h
4926 cb1d      rr      l
4928 1f        rra     
4929 cb19      rr      c
492b 10f4      djnz    4a21h
492d 47        ld      b,a
492e c9        ret     
492f 210000    ld      hl,0000h
4932 cd7ff2    call    0f27fh
4935 78        ld      a,b
4936 0610      ld      b,10h
4938 cb11      rl      c
493a 17        rla     
493b cb15      rl      l
493d cb14      rl      h
493f 380d      jr      c,494eh
4941 ed52      sbc     hl,de
4943 3001      jr      nc,4946h
4945 19        add     hl,de
4946 3f        ccf     
4947 cb11      rl      c
4949 17        rla     
494a 10ef      djnz    4a3bh
494c 47        ld      b,a
494d c9        ret     
494e b7        or      a
494f ed52      sbc     hl,de
4951 18f4      jr      4a47h
4953 60        ld      h,b
4954 69        ld      l,c
4955 ed4bf2f2  ld      bc,(0f2f2h)
4959 78        ld      a,b
495a b1        or      c
495b 5f        ld      e,a
495c 57        ld      d,a
495d 2813      jr      z,4972h
495f dd5e02    ld      e,(ix+02h)
4962 dd5603    ld      d,(ix+03h)
4965 eb        ex      de,hl
4966 ed42      sbc     hl,bc
4968 eb        ex      de,hl
4969 ed52      sbc     hl,de
496b 3005      jr      nc,4972h
496d 19        add     hl,de
496e eb        ex      de,hl
496f 210000    ld      hl,0000h
4972 ed53f8f2  ld      (0f2f8h),de
4976 4d        ld      c,l
4977 44        ld      b,h
4978 dd5e02    ld      e,(ix+02h)
497b dd5603    ld      d,(ix+03h)
497e cd2f49    call    492fh
4981 22faf2    ld      (0f2fah),hl
4984 ed43fcf2  ld      (0f2fch),bc
4988 c9        ret     
4989 cd82f2    call    0f282h
498c fd6e1c    ld      l,(iy+1ch)
498f fd661d    ld      h,(iy+1dh)
4992 fd5e1e    ld      e,(iy+1eh)
4995 fd561f    ld      d,(iy+1fh)
4998 7d        ld      a,l
4999 b4        or      h
499a 2833      jr      z,49cfh
499c c5        push    bc
499d 79        ld      a,c
499e 93        sub     e
499f 4f        ld      c,a
49a0 78        ld      a,b
49a1 9a        sbc     a,d
49a2 47        ld      b,a
49a3 300b      jr      nc,49b0h
49a5 c1        pop     bc
49a6 110000    ld      de,0000h
49a9 fd6e1a    ld      l,(iy+1ah)
49ac fd661b    ld      h,(iy+1bh)
49af f5        push    af
49b0 f1        pop     af
49b1 cd85f2    call    0f285h
49b4 78        ld      a,b
49b5 b1        or      c
49b6 c8        ret     z
49b7 d5        push    de
49b8 e5        push    hl
49b9 cdf441    call    41f4h
49bc d1        pop     de
49bd 7c        ld      a,h
49be fe0f      cp      0fh
49c0 3805      jr      c,49c7h
49c2 7d        ld      a,l
49c3 fef8      cp      0f8h
49c5 3005      jr      nc,49cch
49c7 d1        pop     de
49c8 13        inc     de
49c9 0b        dec     bc
49ca 18e5      jr      4ab1h
49cc eb        ex      de,hl
49cd d1        pop     de
49ce c9        ret     
49cf 03        inc     bc
49d0 1b        dec     de
49d1 c9        ret     
49d2 32e0f2    ld      (0f2e0h),a
49d5 2aecf2    ld      hl,(0f2ech)
49d8 3addf2    ld      a,(0f2ddh)
49db cddb4e    call    4edbh
49de eb        ex      de,hl
49df 2a3ff2    ld      hl,(0f23fh)
49e2 ed52      sbc     hl,de
49e4 200a      jr      nz,49f0h
49e6 3ae1f2    ld      a,(0f2e1h)
49e9 6f        ld      l,a
49ea 3a41f2    ld      a,(0f241h)
49ed bd        cp      l
49ee 282b      jr      z,4a1bh
49f0 d5        push    de
49f1 dde5      push    ix
49f3 cd2d47    call    472dh
49f6 dde1      pop     ix
49f8 d1        pop     de
49f9 3ae0f2    ld      a,(0f2e0h)
49fc b7        or      a
49fd 200e      jr      nz,4a0dh
49ff 3d        dec     a
4a00 3241f2    ld      (0f241h),a
4a03 2a4ff3    ld      hl,(0f34fh)
4a06 0601      ld      b,01h
4a08 d5        push    de
4a09 cdc546    call    46c5h
4a0c d1        pop     de
4a0d ed533ff2  ld      (0f23fh),de
4a11 3ae1f2    ld      a,(0f2e1h)
4a14 3241f2    ld      (0f241h),a
4a17 dd2243f2  ld      (0f243h),ix
4a1b 3e01      ld      a,01h
4a1d 32dff2    ld      (0f2dfh),a
4a20 2ae2f2    ld      hl,(0f2e2h)
4a23 e5        push    hl
4a24 ed4bf8f2  ld      bc,(0f2f8h)
4a28 09        add     hl,bc
4a29 22e2f2    ld      (0f2e2h),hl
4a2c 2a4ff3    ld      hl,(0f34fh)
4a2f ed5bf2f2  ld      de,(0f2f2h)
4a33 19        add     hl,de
4a34 d1        pop     de
4a35 c9        ret     
4a36 cd88f2    call    0f288h
4a39 2af8f2    ld      hl,(0f2f8h)
4a3c 7c        ld      a,h
4a3d b5        or      l
4a3e c8        ret     z
4a3f af        xor     a
4a40 cdd249    call    49d2h
4a43 c3d9f1    jp      0f1d9h
4a46 cd8bf2    call    0f28bh
4a49 2af8f2    ld      hl,(0f2f8h)
4a4c 7c        ld      a,h
4a4d b5        or      l
4a4e c8        ret     z
4a4f 2aeef2    ld      hl,(0f2eeh)
4a52 23        inc     hl
4a53 22eef2    ld      (0f2eeh),hl
4a56 af        xor     a
4a57 eb        ex      de,hl
4a58 2af0f2    ld      hl,(0f2f0h)
4a5b ed52      sbc     hl,de
4a5d 1f        rra     
4a5e cdd249    call    49d2h
4a61 eb        ex      de,hl
4a62 cdd9f1    call    0f1d9h
4a65 3e01      ld      a,01h
4a67 3242f2    ld      (0f242h),a
4a6a c9        ret     
4a6b 210000    ld      hl,0000h
4a6e 22f2f2    ld      (0f2f2h),hl
4a71 2afaf2    ld      hl,(0f2fah)
4a74 22f8f2    ld      (0f2f8h),hl
4a77 7c        ld      a,h
4a78 b5        or      l
4a79 37        scf     
4a7a c8        ret     z
4a7b 3adff2    ld      a,(0f2dfh)
4a7e b7        or      a
4a7f c8        ret     z
4a80 3addf2    ld      a,(0f2ddh)
4a83 ddbe06    cp      (ix+06h)
4a86 381a      jr      c,4aa2h
4a88 ed5becf2  ld      de,(0f2ech)
4a8c 21f70f    ld      hl,0ff7h
4a8f ed52      sbc     hl,de
4a91 d8        ret     c
4a92 eb        ex      de,hl
4a93 cdf441    call    41f4h
4a96 22ecf2    ld      (0f2ech),hl
4a99 2aeaf2    ld      hl,(0f2eah)
4a9c 23        inc     hl
4a9d 22eaf2    ld      (0f2eah),hl
4aa0 3eff      ld      a,0ffh
4aa2 3c        inc     a
4aa3 32ddf2    ld      (0f2ddh),a
4aa6 b7        or      a
4aa7 c9        ret     
4aa8 7e        ld      a,(hl)
4aa9 eda0      ldi     
4aab fe0d      cp      0dh
4aad 2002      jr      nz,4ab1h
4aaf 360a      ld      (hl),0ah
4ab1 fe0a      cp      0ah
4ab3 2815      jr      z,4acah
4ab5 78        ld      a,b
4ab6 b1        or      c
4ab7 20ef      jr      nz,4ba8h
4ab9 2200f3    ld      (0f300h),hl
4abc ed53e2f2  ld      (0f2e2h),de
4ac0 c2e24b    jp      nz,4be2h
4ac3 fdcb18b6  res     6,(iy+18h)
4ac7 c3e24b    jp      4be2h
4aca cda853    call    53a8h
4acd 210000    ld      hl,0000h
4ad0 79        ld      a,c
4ad1 b0        or      b
4ad2 2025      jr      nz,4af9h
4ad4 3c        inc     a
4ad5 18e2      jr      4bb9h
4ad7 ed5be2f2  ld      de,(0f2e2h)
4adb 3c        inc     a
4adc 2814      jr      z,4af2h
4ade 3c        inc     a
4adf 20db      jr      nz,4bbch
4ae1 cd6e54    call    546eh
4ae4 12        ld      (de),a
4ae5 13        inc     de
4ae6 fe1a      cp      1ah
4ae8 28d2      jr      z,4bbch
4aea 0b        dec     bc
4aeb 78        ld      a,b
4aec b1        or      c
4aed 20f2      jr      nz,4be1h
4aef 3c        inc     a
4af0 18ca      jr      4bbch
4af2 2a00f3    ld      hl,(0f300h)
4af5 7c        ld      a,h
4af6 b5        or      l
4af7 20af      jr      nz,4ba8h
4af9 217f00    ld      hl,007fh
4afc 3ad9f4    ld      a,(0f4d9h)
4aff bd        cp      l
4b00 2803      jr      z,4b05h
4b02 22d9f4    ld      (0f4d9h),hl
4b05 c5        push    bc
4b06 d5        push    de
4b07 11d9f4    ld      de,0f4d9h
4b0a cde050    call    50e0h
4b0d d1        pop     de
4b0e c1        pop     bc
4b0f 21dbf4    ld      hl,0f4dbh
4b12 7e        ld      a,(hl)
4b13 fe1a      cp      1ah
4b15 2091      jr      nz,4ba8h
4b17 12        ld      (de),a
4b18 13        inc     de
4b19 3e0a      ld      a,0ah
4b1b cda853    call    53a8h
4b1e af        xor     a
4b1f 67        ld      h,a
4b20 6f        ld      l,a
4b21 1896      jr      4bb9h
4b23 cd7d48    call    487dh
4b26 fad74a    jp      m,4ad7h
4b29 fd6e10    ld      l,(iy+10h)
4b2c fd6611    ld      h,(iy+11h)
4b2f ed5bf4f2  ld      de,(0f2f4h)
4b33 b7        or      a
4b34 ed52      sbc     hl,de
4b36 e5        push    hl
4b37 fd6e12    ld      l,(iy+12h)
4b3a fd6613    ld      h,(iy+13h)
4b3d ed5bf6f2  ld      de,(0f2f6h)
4b41 ed52      sbc     hl,de
4b43 e1        pop     hl
4b44 da974c    jp      c,4c97h
4b47 200d      jr      nz,4b56h
4b49 7c        ld      a,h
4b4a b5        or      l
4b4b ca974c    jp      z,4c97h
4b4e e5        push    hl
4b4f ed42      sbc     hl,bc
4b51 e1        pop     hl
4b52 3002      jr      nc,4b56h
4b54 44        ld      b,h
4b55 4d        ld      c,l
4b56 cd8ef2    call    0f28eh
4b59 cd5349    call    4953h
4b5c ed4becf2  ld      bc,(0f2ech)
4b60 cd8949    call    4989h
4b63 78        ld      a,b
4b64 b1        or      c
4b65 c2974c    jp      nz,4c97h
4b68 22ecf2    ld      (0f2ech),hl
4b6b ed53eaf2  ld      (0f2eah),de
4b6f cd364a    call    4a36h
4b72 2afcf2    ld      hl,(0f2fch)
4b75 7c        ld      a,h
4b76 b5        or      l
4b77 cadc4b    jp      z,4bdch
4b7a cd7b4a    call    4a7bh
4b7d 3863      jr      c,4be2h
4b7f 3e01      ld      a,01h
4b81 32dff2    ld      (0f2dfh),a
4b84 3addf2    ld      a,(0f2ddh)
4b87 ed4bfcf2  ld      bc,(0f2fch)
4b8b 2aecf2    ld      hl,(0f2ech)
4b8e c5        push    bc
4b8f cd484e    call    4e48h
4b92 c5        push    bc
4b93 f5        push    af
4b94 47        ld      b,a
4b95 cdc546    call    46c5h
4b98 f1        pop     af
4b99 4f        ld      c,a
4b9a 0600      ld      b,00h
4b9c 3823      jr      c,4bc1h
4b9e 3a42f2    ld      a,(0f242h)
4ba1 b7        or      a
4ba2 281d      jr      z,4bc1h
4ba4 c5        push    bc
4ba5 dd4e02    ld      c,(ix+02h)
4ba8 dd4603    ld      b,(ix+03h)
4bab c5        push    bc
4bac e5        push    hl
4bad 2a3ff2    ld      hl,(0f23fh)
4bb0 ed52      sbc     hl,de
4bb2 eb        ex      de,hl
4bb3 cd1649    call    4916h
4bb6 e1        pop     hl
4bb7 09        add     hl,bc
4bb8 c1        pop     bc
4bb9 eb        ex      de,hl
4bba 2a4ff3    ld      hl,(0f34fh)
4bbd cdd9f1    call    0f1d9h
4bc0 c1        pop     bc
4bc1 d1        pop     de
4bc2 e1        pop     hl
4bc3 b7        or      a
4bc4 ed42      sbc     hl,bc
4bc6 2814      jr      z,4bdch
4bc8 4d        ld      c,l
4bc9 44        ld      b,h
4bca 21f70f    ld      hl,0ff7h
4bcd ed52      sbc     hl,de
4bcf 3811      jr      c,4be2h
4bd1 2aeaf2    ld      hl,(0f2eah)
4bd4 23        inc     hl
4bd5 22eaf2    ld      (0f2eah),hl
4bd8 af        xor     a
4bd9 eb        ex      de,hl
4bda 18b2      jr      4c8eh
4bdc cd6b4a    call    4a6bh
4bdf d4364a    call    nc,4a36h
4be2 cd91f2    call    0f291h
4be5 2ae2f2    ld      hl,(0f2e2h)
4be8 ed5b3df2  ld      de,(0f23dh)
4bec b7        or      a
4bed ed52      sbc     hl,de
4bef 4d        ld      c,l
4bf0 44        ld      b,h
4bf1 118000    ld      de,0080h
4bf4 3a06f3    ld      a,(0f306h)
4bf7 b7        or      a
4bf8 2006      jr      nz,4c00h
4bfa fd5e0e    ld      e,(iy+0eh)
4bfd fd560f    ld      d,(iy+0fh)
4c00 cd2f49    call    492fh
4c03 7c        ld      a,h
4c04 b5        or      l
4c05 2810      jr      z,4c17h
4c07 03        inc     bc
4c08 eb        ex      de,hl
4c09 ed52      sbc     hl,de
4c0b ed5be2f2  ld      de,(0f2e2h)
4c0f af        xor     a
4c10 12        ld      (de),a
4c11 13        inc     de
4c12 2b        dec     hl
4c13 7c        ld      a,h
4c14 b5        or      l
4c15 20f8      jr      nz,4d0fh
4c17 2ae8f2    ld      hl,(0f2e8h)
4c1a ed42      sbc     hl,bc
4c1c 2804      jr      z,4c22h
4c1e 3c        inc     a
4c1f 32def2    ld      (0f2deh),a
4c22 cd94f2    call    0f294h
4c25 2aecf2    ld      hl,(0f2ech)
4c28 fd751c    ld      (iy+1ch),l
4c2b fd741d    ld      (iy+1dh),h
4c2e 2aeaf2    ld      hl,(0f2eah)
4c31 fd751e    ld      (iy+1eh),l
4c34 fd741f    ld      (iy+1fh),h
4c37 2ae4f2    ld      hl,(0f2e4h)
4c3a ed5be6f2  ld      de,(0f2e6h)
4c3e 78        ld      a,b
4c3f b1        or      c
4c40 c8        ret     z
4c41 0b        dec     bc
4c42 09        add     hl,bc
4c43 03        inc     bc
4c44 d0        ret     nc
4c45 13        inc     de
4c46 c9        ret     
4c47 2a3df2    ld      hl,(0f23dh)
4c4a f640      or      40h
4c4c 3c        inc     a
4c4d 2824      jr      z,4c73h
4c4f 3c        inc     a
4c50 2811      jr      z,4c63h
4c52 3c        inc     a
4c53 282c      jr      z,4c81h
4c55 7e        ld      a,(hl)
4c56 23        inc     hl
4c57 fe1a      cp      1ah
4c59 2826      jr      z,4c81h
4c5b cd6654    call    5466h
4c5e 0b        dec     bc
4c5f 78        ld      a,b
4c60 b1        or      c
4c61 18f0      jr      4d53h
4c63 7e        ld      a,(hl)
4c64 23        inc     hl
4c65 cd7554    call    5475h
4c68 fe1a      cp      1ah
4c6a 2815      jr      z,4c81h
4c6c 0b        dec     bc
4c6d 78        ld      a,b
4c6e b1        or      c
4c6f 20f2      jr      nz,4d63h
4c71 180e      jr      4c81h
4c73 7e        ld      a,(hl)
4c74 23        inc     hl
4c75 fe1a      cp      1ah
4c77 2808      jr      z,4c81h
4c79 cda853    call    53a8h
4c7c 0b        dec     bc
4c7d 78        ld      a,b
4c7e b1        or      c
4c7f 20f2      jr      nz,4d73h
4c81 ed4be8f2  ld      bc,(0f2e8h)
4c85 18b0      jr      4d37h
4c87 4b        ld      c,e
4c88 42        ld      b,d
4c89 cdb149    call    49b1h
4c8c 78        ld      a,b
4c8d b1        or      c
4c8e ca414d    jp      z,4d41h
4c91 cd124f    call    4f12h
4c94 d2414d    jp      nc,4d41h
4c97 cd97f2    call    0f297h
4c9a af        xor     a
4c9b 4f        ld      c,a
4c9c 47        ld      b,a
4c9d 3c        inc     a
4c9e 32def2    ld      (0f2deh),a
4ca1 1894      jr      4d37h
4ca3 cd7d48    call    487dh
4ca6 f5        push    af
4ca7 c5        push    bc
4ca8 cd9654    call    5496h
4cab fd7114    ld      (iy+14h),c
4cae fd7015    ld      (iy+15h),b
4cb1 fd7316    ld      (iy+16h),e
4cb4 fd7217    ld      (iy+17h),d
4cb7 c1        pop     bc
4cb8 f1        pop     af
4cb9 fa474c    jp      m,4c47h
4cbc fdcb18b6  res     6,(iy+18h)
4cc0 c5        push    bc
4cc1 cd5349    call    4953h
4cc4 c1        pop     bc
4cc5 2af4f2    ld      hl,(0f2f4h)
4cc8 ed5bf6f2  ld      de,(0f2f6h)
4ccc 78        ld      a,b
4ccd b1        or      c
4cce cadd4d    jp      z,4dddh
4cd1 0b        dec     bc
4cd2 09        add     hl,bc
4cd3 3001      jr      nc,4cd6h
4cd5 13        inc     de
4cd6 44        ld      b,h
4cd7 4d        ld      c,l
4cd8 eb        ex      de,hl
4cd9 dd5e02    ld      e,(ix+02h)
4cdc dd5603    ld      d,(ix+03h)
4cdf cd3249    call    4932h
4ce2 60        ld      h,b
4ce3 69        ld      l,c
4ce4 dd4607    ld      b,(ix+07h)
4ce7 05        dec     b
4ce8 2806      jr      z,4cf0h
4cea cb3c      srl     h
4cec cb1d      rr      l
4cee 10fa      djnz    4deah
4cf0 e5        push    hl
4cf1 fd4e10    ld      c,(iy+10h)
4cf4 fd4611    ld      b,(iy+11h)
4cf7 fd6e12    ld      l,(iy+12h)
4cfa fd6613    ld      h,(iy+13h)
4cfd cd3249    call    4932h
4d00 7c        ld      a,h
4d01 b5        or      l
4d02 2801      jr      z,4d05h
4d04 03        inc     bc
4d05 cd9af2    call    0f29ah
4d08 ed43f0f2  ld      (0f2f0h),bc
4d0c ed4becf2  ld      bc,(0f2ech)
4d10 cd8949    call    4989h
4d13 22ecf2    ld      (0f2ech),hl
4d16 ed53eaf2  ld      (0f2eah),de
4d1a e3        ex      (sp),hl
4d1b b7        or      a
4d1c ed52      sbc     hl,de
4d1e eb        ex      de,hl
4d1f e1        pop     hl
4d20 281f      jr      z,4d41h
4d22 78        ld      a,b
4d23 b1        or      c
4d24 ca874c    jp      z,4c87h
4d27 c5        push    bc
4d28 4b        ld      c,e
4d29 42        ld      b,d
4d2a cd124f    call    4f12h
4d2d c1        pop     bc
4d2e da974c    jp      c,4c97h
4d31 ed5beaf2  ld      de,(0f2eah)
4d35 13        inc     de
4d36 0b        dec     bc
4d37 cdb149    call    49b1h
4d3a 22ecf2    ld      (0f2ech),hl
4d3d ed53eaf2  ld      (0f2eah),de
4d41 cd464a    call    4a46h
4d44 2afcf2    ld      hl,(0f2fch)
4d47 7c        ld      a,h
4d48 b5        or      l
4d49 2841      jr      z,4d8ch
4d4b ed5beef2  ld      de,(0f2eeh)
4d4f 19        add     hl,de
4d50 22eef2    ld      (0f2eeh),hl
4d53 cd7b4a    call    4a7bh
4d56 3e01      ld      a,01h
4d58 32dff2    ld      (0f2dfh),a
4d5b 3addf2    ld      a,(0f2ddh)
4d5e 2aecf2    ld      hl,(0f2ech)
4d61 ed4bfcf2  ld      bc,(0f2fch)
4d65 c5        push    bc
4d66 cd484e    call    4e48h
4d69 c5        push    bc
4d6a f5        push    af
4d6b 47        ld      b,a
4d6c 3805      jr      c,4d73h
4d6e 3eff      ld      a,0ffh
4d70 3241f2    ld      (0f241h),a
4d73 cd5547    call    4755h
4d76 f1        pop     af
4d77 d1        pop     de
4d78 e1        pop     hl
4d79 4f        ld      c,a
4d7a af        xor     a
4d7b 47        ld      b,a
4d7c ed42      sbc     hl,bc
4d7e 280c      jr      z,4d8ch
4d80 4d        ld      c,l
4d81 44        ld      b,h
4d82 2aeaf2    ld      hl,(0f2eah)
4d85 23        inc     hl
4d86 22eaf2    ld      (0f2eah),hl
4d89 eb        ex      de,hl
4d8a 18d9      jr      4e65h
4d8c cd9df2    call    0f29dh
4d8f cd6b4a    call    4a6bh
4d92 d4464a    call    nc,4a46h
4d95 2ae2f2    ld      hl,(0f2e2h)
4d98 ed5b3df2  ld      de,(0f23dh)
4d9c b7        or      a
4d9d ed52      sbc     hl,de
4d9f ed5bf4f2  ld      de,(0f2f4h)
4da3 19        add     hl,de
4da4 ed5bf6f2  ld      de,(0f2f6h)
4da8 3001      jr      nc,4dabh
4daa 13        inc     de
4dab 22f4f2    ld      (0f2f4h),hl
4dae ed53f6f2  ld      (0f2f6h),de
4db2 fd4e10    ld      c,(iy+10h)
4db5 fd4611    ld      b,(iy+11h)
4db8 b7        or      a
4db9 ed42      sbc     hl,bc
4dbb fd4e12    ld      c,(iy+12h)
4dbe fd4613    ld      b,(iy+13h)
4dc1 eb        ex      de,hl
4dc2 ed42      sbc     hl,bc
4dc4 3810      jr      c,4dd6h
4dc6 fde5      push    iy
4dc8 e1        pop     hl
4dc9 111000    ld      de,0010h
4dcc 19        add     hl,de
4dcd eb        ex      de,hl
4dce 21f4f2    ld      hl,0f2f4h
4dd1 010400    ld      bc,0004h
4dd4 edb0      ldir    
4dd6 ed4be8f2  ld      bc,(0f2e8h)
4dda c3224c    jp      4c22h
4ddd 7c        ld      a,h
4dde b5        or      l
4ddf b2        or      d
4de0 b3        or      e
4de1 284f      jr      z,4e32h
4de3 010100    ld      bc,0001h
4de6 ed42      sbc     hl,bc
4de8 eb        ex      de,hl
4de9 0b        dec     bc
4dea ed42      sbc     hl,bc
4dec 42        ld      b,d
4ded 4b        ld      c,e
4dee dd5e02    ld      e,(ix+02h)
4df1 dd5603    ld      d,(ix+03h)
4df4 cd3249    call    4932h
4df7 dd7e07    ld      a,(ix+07h)
4dfa 3d        dec     a
4dfb 2806      jr      z,4e03h
4dfd cb38      srl     b
4dff cb19      rr      c
4e01 18f7      jr      4efah
4e03 cd8949    call    4989h
4e06 78        ld      a,b
4e07 b1        or      c
4e08 281c      jr      z,4e26h
4e0a cd124f    call    4f12h
4e0d da974c    jp      c,4c97h
4e10 010000    ld      bc,0000h
4e13 ed43e8f2  ld      (0f2e8h),bc
4e17 ed43eaf2  ld      (0f2eah),bc
4e1b fd6e1a    ld      l,(iy+1ah)
4e1e fd661b    ld      h,(iy+1bh)
4e21 22ecf2    ld      (0f2ech),hl
4e24 18a0      jr      4ec6h
4e26 01ff0f    ld      bc,0fffh
4e29 cd9e4f    call    4f9eh
4e2c 1b        dec     de
4e2d 3e01      ld      a,01h
4e2f 12        ld      (de),a
4e30 18de      jr      4f10h
4e32 fd6e1a    ld      l,(iy+1ah)
4e35 fd661b    ld      h,(iy+1bh)
4e38 7c        ld      a,h
4e39 b5        or      l
4e3a 28d4      jr      z,4f10h
4e3c af        xor     a
4e3d fd771a    ld      (iy+1ah),a
4e40 fd771b    ld      (iy+1bh),a
4e43 cd9b4f    call    4f9bh
4e46 18e4      jr      4f2ch
4e48 cda0f2    call    0f2a0h
4e4b 57        ld      d,a
4e4c e5        push    hl
4e4d 04        inc     b
4e4e 05        dec     b
4e4f 2802      jr      z,4e53h
4e51 0eff      ld      c,0ffh
4e53 59        ld      e,c
4e54 d5        push    de
4e55 dd7e06    ld      a,(ix+06h)
4e58 32ddf2    ld      (0f2ddh),a
4e5b 3c        inc     a
4e5c 92        sub     d
4e5d 47        ld      b,a
4e5e 22ecf2    ld      (0f2ech),hl
4e61 e5        push    hl
4e62 cdf441    call    41f4h
4e65 d1        pop     de
4e66 79        ld      a,c
4e67 90        sub     b
4e68 4f        ld      c,a
4e69 280d      jr      z,4e78h
4e6b dd4606    ld      b,(ix+06h)
4e6e 385a      jr      c,4ecah
4e70 04        inc     b
4e71 13        inc     de
4e72 eb        ex      de,hl
4e73 ed52      sbc     hl,de
4e75 eb        ex      de,hl
4e76 28e6      jr      z,4f5eh
4e78 d1        pop     de
4e79 e3        ex      (sp),hl
4e7a e5        push    hl
4e7b d5        push    de
4e7c 7b        ld      a,e
4e7d 91        sub     c
4e7e 5f        ld      e,a
4e7f 1600      ld      d,00h
4e81 dd4e02    ld      c,(ix+02h)
4e84 dd4603    ld      b,(ix+03h)
4e87 cd1649    call    4916h
4e8a f1        pop     af
4e8b 2ae2f2    ld      hl,(0f2e2h)
4e8e e5        push    hl
4e8f 09        add     hl,bc
4e90 22e2f2    ld      (0f2e2h),hl
4e93 c1        pop     bc
4e94 e1        pop     hl
4e95 c5        push    bc
4e96 d5        push    de
4e97 eb        ex      de,hl
4e98 2aecf2    ld      hl,(0f2ech)
4e9b ed52      sbc     hl,de
4e9d ed4beaf2  ld      bc,(0f2eah)
4ea1 09        add     hl,bc
4ea2 22eaf2    ld      (0f2eah),hl
4ea5 eb        ex      de,hl
4ea6 cddb4e    call    4edbh
4ea9 eb        ex      de,hl
4eaa c1        pop     bc
4eab 3a41f2    ld      a,(0f241h)
4eae ddbe00    cp      (ix+00h)
4eb1 79        ld      a,c
4eb2 37        scf     
4eb3 2012      jr      nz,4ec7h
4eb5 2a3ff2    ld      hl,(0f23fh)
4eb8 b7        or      a
4eb9 ed52      sbc     hl,de
4ebb 380a      jr      c,4ec7h
4ebd 60        ld      h,b
4ebe 69        ld      l,c
4ebf 19        add     hl,de
4ec0 2b        dec     hl
4ec1 ed4b3ff2  ld      bc,(0f23fh)
4ec5 ed42      sbc     hl,bc
4ec7 e1        pop     hl
4ec8 c1        pop     bc
4ec9 c9        ret     
4eca 80        add     a,b
4ecb 32ddf2    ld      (0f2ddh),a
4ece 0e00      ld      c,00h
4ed0 18a6      jr      4f78h
4ed2 cdfa41    call    41fah
4ed5 7d        ld      a,l
4ed6 29        add     hl,hl
4ed7 29        add     hl,hl
4ed8 e63f      and     3fh
4eda c9        ret     
4edb cda3f2    call    0f2a3h
4ede c5        push    bc
4edf dd4607    ld      b,(ix+07h)
4ee2 2b        dec     hl
4ee3 2b        dec     hl
4ee4 05        dec     b
4ee5 2806      jr      z,4eedh
4ee7 cb25      sla     l
4ee9 cb14      rl      h
4eeb 10fa      djnz    4fe7h
4eed b5        or      l
4eee 6f        ld      l,a
4eef dd4e0c    ld      c,(ix+0ch)
4ef2 dd460d    ld      b,(ix+0dh)
4ef5 09        add     hl,bc
4ef6 c1        pop     bc
4ef7 c9        ret     
4ef8 d5        push    de
4ef9 fde1      pop     iy
4efb fd4e20    ld      c,(iy+20h)
4efe fd460c    ld      b,(iy+0ch)
4f01 fd5e0e    ld      e,(iy+0eh)
4f04 1600      ld      d,00h
4f06 cb21      sla     c
4f08 cb3b      srl     e
4f0a cb18      rr      b
4f0c cb19      rr      c
4f0e 210100    ld      hl,0001h
4f11 c9        ret     
4f12 cda6f2    call    0f2a6h
4f15 dd5e13    ld      e,(ix+13h)
4f18 dd5614    ld      d,(ix+14h)
4f1b eb        ex      de,hl
4f1c 7e        ld      a,(hl)
4f1d 23        inc     hl
4f1e 66        ld      h,(hl)
4f1f 6f        ld      l,a
4f20 e5        push    hl
4f21 eb        ex      de,hl
4f22 dd5e0e    ld      e,(ix+0eh)
4f25 dd560f    ld      d,(ix+0fh)
4f28 ed5302f3  ld      (0f302h),de
4f2c e5        push    hl
4f2d c5        push    bc
4f2e e5        push    hl
4f2f 54        ld      d,h
4f30 5d        ld      e,l
4f31 d5        push    de
4f32 eb        ex      de,hl
4f33 2a02f3    ld      hl,(0f302h)
4f36 2b        dec     hl
4f37 b7        or      a
4f38 ed52      sbc     hl,de
4f3a eb        ex      de,hl
4f3b d1        pop     de
4f3c 3010      jr      nc,4f4eh
4f3e 7b        ld      a,e
4f3f b2        or      d
4f40 2014      jr      nz,4f56h
4f42 e1        pop     hl
4f43 e1        pop     hl
4f44 e1        pop     hl
4f45 01ff0f    ld      bc,0fffh
4f48 cd9e4f    call    4f9eh
4f4b 37        scf     
4f4c 1846      jr      4f94h
4f4e 23        inc     hl
4f4f cd5e4f    call    4f5eh
4f52 7b        ld      a,e
4f53 b2        or      d
4f54 28db      jr      z,5031h
4f56 1b        dec     de
4f57 eb        ex      de,hl
4f58 cd5e4f    call    4f5eh
4f5b eb        ex      de,hl
4f5c 18d3      jr      5031h
4f5e e5        push    hl
4f5f d5        push    de
4f60 cdf441    call    41f4h
4f63 d1        pop     de
4f64 e1        pop     hl
4f65 c0        ret     nz
4f66 c1        pop     bc
4f67 4d        ld      c,l
4f68 44        ld      b,h
4f69 e3        ex      (sp),hl
4f6a dd5e13    ld      e,(ix+13h)
4f6d dd5614    ld      d,(ix+14h)
4f70 cd2142    call    4221h
4f73 e1        pop     hl
4f74 c1        pop     bc
4f75 0b        dec     bc
4f76 78        ld      a,b
4f77 b1        or      c
4f78 20b3      jr      nz,502dh
4f7a 01ff0f    ld      bc,0fffh
4f7d cd2142    call    4221h
4f80 1b        dec     de
4f81 3e01      ld      a,01h
4f83 12        ld      (de),a
4f84 e1        pop     hl
4f85 e5        push    hl
4f86 cdf441    call    41f4h
4f89 c1        pop     bc
4f8a 79        ld      a,c
4f8b b0        or      b
4f8c 2006      jr      nz,4f94h
4f8e fd751a    ld      (iy+1ah),l
4f91 fd741b    ld      (iy+1bh),h
4f94 eb        ex      de,hl
4f95 c1        pop     bc
4f96 71        ld      (hl),c
4f97 23        inc     hl
4f98 70        ld      (hl),b
4f99 eb        ex      de,hl
4f9a c9        ret     
4f9b 010000    ld      bc,0000h
4f9e cda9f2    call    0f2a9h
4fa1 e5        push    hl
4fa2 cdf441    call    41f4h
4fa5 e3        ex      (sp),hl
4fa6 cd2142    call    4221h
4fa9 e1        pop     hl
4faa 7c        ld      a,h
4fab b5        or      l
4fac c8        ret     z
4fad 7c        ld      a,h
4fae fe0f      cp      0fh
4fb0 38e9      jr      c,509bh
4fb2 7d        ld      a,l
4fb3 fef8      cp      0f8h
4fb5 38e4      jr      c,509bh
4fb7 c9        ret     
4fb8 cda542    call    42a5h
4fbb 3843      jr      c,5000h
4fbd 3ab8f2    ld      a,(0f2b8h)
4fc0 2802      jr      z,4fc4h
4fc2 3eff      ld      a,0ffh
4fc4 320bf3    ld      (0f30bh),a
4fc7 dd2209f3  ld      (0f309h),ix
4fcb ed5b3df2  ld      de,(0f23dh)
4fcf 3ae1f2    ld      a,(0f2e1h)
4fd2 3c        inc     a
4fd3 12        ld      (de),a
4fd4 13        inc     de
4fd5 7e        ld      a,(hl)
4fd6 fe05      cp      05h
4fd8 2002      jr      nz,4fdch
4fda 36e5      ld      (hl),0e5h
4fdc 012000    ld      bc,0020h
4fdf cdd9f1    call    0f1d9h
4fe2 cd3944    call    4439h
4fe5 3a0cf3    ld      a,(0f30ch)
4fe8 b8        cp      b
4fe9 2804      jr      z,4fefh
4feb 3013      jr      nc,5000h
4fed 0e80      ld      c,80h
4fef 2a3df2    ld      hl,(0f23dh)
4ff2 110c00    ld      de,000ch
4ff5 19        add     hl,de
4ff6 46        ld      b,(hl)
4ff7 77        ld      (hl),a
4ff8 23        inc     hl
4ff9 70        ld      (hl),b
4ffa 23        inc     hl
4ffb 72        ld      (hl),d
4ffc 23        inc     hl
4ffd 71        ld      (hl),c
4ffe af        xor     a
4fff c9        ret     
5000 3eff      ld      a,0ffh
5002 320bf3    ld      (0f30bh),a
5005 c9        ret     
5006 cd0e44    call    440eh
5009 38f5      jr      c,5100h
500b 3a0bf3    ld      a,(0f30bh)
500e feff      cp      0ffh
5010 28ee      jr      z,5100h
5012 32b8f2    ld      (0f2b8h),a
5015 dd2a09f3  ld      ix,(0f309h)
5019 cdbc42    call    42bch
501c 189d      jr      50bbh
501e cda542    call    42a5h
5021 3eff      ld      a,0ffh
5023 d8        ret     c
5024 d5        push    de
5025 dde1      pop     ix
5027 fd7e1c    ld      a,(iy+1ch)
502a fd4e1d    ld      c,(iy+1dh)
502d fd461e    ld      b,(iy+1eh)
5030 fd5e1f    ld      e,(iy+1fh)
5033 87        add     a,a
5034 cb11      rl      c
5036 cb10      rl      b
5038 cb13      rl      e
503a b7        or      a
503b 2806      jr      z,5043h
503d 03        inc     bc
503e 78        ld      a,b
503f b1        or      c
5040 2001      jr      nz,5043h
5042 1c        inc     e
5043 dd7121    ld      (ix+21h),c
5046 dd7022    ld      (ix+22h),b
5049 dd7323    ld      (ix+23h),e
504c af        xor     a
504d c9        ret     
504e 3a47f3    ld      a,(0f347h)
5051 47        ld      b,a
5052 af        xor     a
5053 37        scf     
5054 17        rla     
5055 10fc      djnz    5153h
5057 c9        ret     
5058 ed533df2  ld      (0f23dh),de
505c c9        ret     
505d af        xor     a
505e 3206f3    ld      (0f306h),a
5061 7b        ld      a,e
5062 cd2744    call    4427h
5065 3eff      ld      a,0ffh
5067 d8        ret     c
5068 cddb44    call    44dbh
506b dd5e13    ld      e,(ix+13h)
506e dd5614    ld      d,(ix+14h)
5071 d5        push    de
5072 fde1      pop     iy
5074 210200    ld      hl,0002h
5077 44        ld      b,h
5078 4c        ld      c,h
5079 dd5e0e    ld      e,(ix+0eh)
507c dd560f    ld      d,(ix+0fh)
507f 1b        dec     de
5080 d5        push    de
5081 d5        push    de
5082 e5        push    hl
5083 cdf441    call    41f4h
5086 e1        pop     hl
5087 d1        pop     de
5088 2001      jr      nz,508bh
508a 03        inc     bc
508b 23        inc     hl
508c 1b        dec     de
508d 7b        ld      a,e
508e b2        or      d
508f 20f0      jr      nz,5181h
5091 60        ld      h,b
5092 69        ld      l,c
5093 d1        pop     de
5094 dd7e06    ld      a,(ix+06h)
5097 3c        inc     a
5098 dd4e02    ld      c,(ix+02h)
509b dd4603    ld      b,(ix+03h)
509e c9        ret     
509f 218000    ld      hl,0080h
50a2 223df2    ld      (0f23dh),hl
50a5 af        xor     a
50a6 3247f2    ld      (0f247h),a
50a9 cd2d47    call    472dh
50ac 2155f3    ld      hl,0f355h
50af 3a47f3    ld      a,(0f347h)
50b2 5e        ld      e,(hl)
50b3 23        inc     hl
50b4 56        ld      d,(hl)
50b5 23        inc     hl
50b6 e5        push    hl
50b7 f5        push    af
50b8 d5        push    de
50b9 dde1      pop     ix
50bb cdc445    call    45c4h
50be f1        pop     af
50bf e1        pop     hl
50c0 3d        dec     a
50c1 20ef      jr      nz,51b2h
50c3 c9        ret     
50c4 3a47f2    ld      a,(0f247h)
50c7 c9        ret     
50c8 cdf84e    call    4ef8h
50cb fd7521    ld      (iy+21h),l
50ce fd7422    ld      (iy+22h),h
50d1 fd7323    ld      (iy+23h),e
50d4 c9        ret     
50d5 3a47f3    ld      a,(0f347h)
50d8 bb        cp      e
50d9 d8        ret     c
50da c8        ret     z
50db 2147f2    ld      hl,0f247h
50de 73        ld      (hl),e
50df c9        ret     
50e0 d5        push    de
50e1 3a37f2    ld      a,(0f237h)
50e4 3238f2    ld      (0f238h),a
50e7 af        xor     a
50e8 3239f2    ld      (0f239h),a
50eb 62        ld      h,d
50ec 6b        ld      l,e
50ed 47        ld      b,a
50ee 4e        ld      c,(hl)
50ef 23        inc     hl
50f0 57        ld      d,a
50f1 5e        ld      e,(hl)
50f2 23        inc     hl
50f3 dd2159f4  ld      ix,0f459h
50f7 7b        ld      a,e
50f8 b9        cp      c
50f9 3006      jr      nc,5101h
50fb e5        push    hl
50fc 19        add     hl,de
50fd 7e        ld      a,(hl)
50fe e1        pop     hl
50ff fe0d      cp      0dh
5101 2801      jr      z,5104h
5103 5a        ld      e,d
5104 cdacf2    call    0f2ach
5107 cd4e54    call    544eh
510a e5        push    hl
510b c5        push    bc
510c 217453    ld      hl,5374h
510f 011100    ld      bc,0011h
5112 edb1      cpir    
5114 09        add     hl,bc
5115 09        add     hl,bc
5116 09        add     hl,bc
5117 4e        ld      c,(hl)
5118 23        inc     hl
5119 66        ld      h,(hl)
511a 69        ld      l,c
511b c1        pop     bc
511c e3        ex      (sp),hl
511d c9        ret     
511e cd4e54    call    544eh
5121 fe40      cp      40h
5123 38e5      jr      c,520ah
5125 fe60      cp      60h
5127 30e1      jr      nc,520ah
5129 f5        push    af
512a 78        ld      a,b
512b 3c        inc     a
512c b9        cp      c
512d 302f      jr      nc,515eh
512f 3e01      ld      a,01h
5131 dd7700    ld      (ix+00h),a
5134 dd23      inc     ix
5136 04        inc     b
5137 cd5d53    call    535dh
513a f1        pop     af
513b f5        push    af
513c 78        ld      a,b
513d b9        cp      c
513e 301e      jr      nc,515eh
5140 f1        pop     af
5141 dd7700    ld      (ix+00h),a
5144 dd23      inc     ix
5146 04        inc     b
5147 cd5d53    call    535dh
514a 3a39f2    ld      a,(0f239h)
514d b7        or      a
514e 20b4      jr      nz,5204h
5150 14        inc     d
5151 7b        ld      a,e
5152 ba        cp      d
5153 38af      jr      c,5204h
5155 7e        ld      a,(hl)
5156 3d        dec     a
5157 23        inc     hl
5158 20aa      jr      nz,5204h
515a 14        inc     d
515b 23        inc     hl
515c 18a6      jr      5204h
515e f1        pop     af
515f 3e07      ld      a,07h
5161 cda853    call    53a8h
5164 189e      jr      5204h
5166 d1        pop     de
5167 3a38f2    ld      a,(0f238h)
516a 47        ld      b,a
516b 3a37f2    ld      a,(0f237h)
516e 90        sub     b
516f 2806      jr      z,5177h
5171 47        ld      b,a
5172 cd4f53    call    534fh
5175 10fb      djnz    5272h
5177 c3e050    jp      50e0h
517a 78        ld      a,b
517b 323af2    ld      (0f23ah),a
517e cd8351    call    5183h
5181 1881      jr      5204h
5183 3e0d      ld      a,0dh
5185 cda853    call    53a8h
5188 3e0a      ld      a,0ah
518a c3a853    jp      53a8h
518d d1        pop     de
518e cda853    call    53a8h
5191 d5        push    de
5192 13        inc     de
5193 78        ld      a,b
5194 12        ld      (de),a
5195 b9        cp      c
5196 f5        push    af
5197 13        inc     de
5198 48        ld      c,b
5199 af        xor     a
519a 47        ld      b,a
519b b1        or      c
519c 2805      jr      z,51a3h
519e 2159f4    ld      hl,0f459h
51a1 edb0      ldir    
51a3 f1        pop     af
51a4 2803      jr      z,51a9h
51a6 3e0d      ld      a,0dh
51a8 12        ld      (de),a
51a9 d1        pop     de
51aa c9        ret     
51ab 3a3af2    ld      a,(0f23ah)
51ae a0        and     b
51af fe7f      cp      7fh
51b1 ca4452    jp      z,5244h
51b4 04        inc     b
51b5 05        dec     b
51b6 2824      jr      z,51dch
51b8 05        dec     b
51b9 dd2b      dec     ix
51bb cd4f53    call    534fh
51be 04        inc     b
51bf 05        dec     b
51c0 280c      jr      z,51ceh
51c2 05        dec     b
51c3 dd2b      dec     ix
51c5 dd7e00    ld      a,(ix+00h)
51c8 3d        dec     a
51c9 2811      jr      z,51dch
51cb 04        inc     b
51cc dd23      inc     ix
51ce dd7e00    ld      a,(ix+00h)
51d1 fe20      cp      20h
51d3 3007      jr      nc,51dch
51d5 fe09      cp      09h
51d7 2822      jr      z,51fbh
51d9 cd4f53    call    534fh
51dc 3a39f2    ld      a,(0f239h)
51df b7        or      a
51e0 209f      jr      nz,5281h
51e2 14        inc     d
51e3 15        dec     d
51e4 289b      jr      z,5281h
51e6 15        dec     d
51e7 7a        ld      a,d
51e8 bb        cp      e
51e9 3096      jr      nc,5281h
51eb 2b        dec     hl
51ec 7a        ld      a,d
51ed fe01      cp      01h
51ef 3890      jr      c,5281h
51f1 2b        dec     hl
51f2 7e        ld      a,(hl)
51f3 3d        dec     a
51f4 23        inc     hl
51f5 208a      jr      nz,5281h
51f7 15        dec     d
51f8 2b        dec     hl
51f9 1886      jr      5281h
51fb e5        push    hl
51fc c5        push    bc
51fd 3a38f2    ld      a,(0f238h)
5200 4f        ld      c,a
5201 04        inc     b
5202 05        dec     b
5203 2815      jr      z,521ah
5205 2159f4    ld      hl,0f459h
5208 7e        ld      a,(hl)
5209 23        inc     hl
520a fe01      cp      01h
520c 280a      jr      z,5218h
520e 0c        inc     c
520f fe20      cp      20h
5211 3005      jr      nc,5218h
5213 fe09      cp      09h
5215 2813      jr      z,522ah
5217 0c        inc     c
5218 10ee      djnz    5308h
521a 3a37f2    ld      a,(0f237h)
521d 91        sub     c
521e 2806      jr      z,5226h
5220 47        ld      b,a
5221 cd4f53    call    534fh
5224 10fb      djnz    5321h
5226 c1        pop     bc
5227 e1        pop     hl
5228 18b2      jr      52dch
522a 79        ld      a,c
522b c607      add     a,07h
522d e6f8      and     0f8h
522f 4f        ld      c,a
5230 18e6      jr      5318h
5232 3a39f2    ld      a,(0f239h)
5235 ee01      xor     01h
5237 1805      jr      523eh
5239 af        xor     a
523a 1802      jr      523eh
523c 3e01      ld      a,01h
523e 3239f2    ld      (0f239h),a
5241 c30451    jp      5104h
5244 af        xor     a
5245 323af2    ld      (0f23ah),a
5248 c5        push    bc
5249 0610      ld      b,10h
524b 117d54    ld      de,547dh
524e 210000    ld      hl,0000h
5251 e5        push    hl
5252 cdd24e    call    4ed2h
5255 c620      add     a,20h
5257 cda853    call    53a8h
525a 7c        ld      a,h
525b c620      add     a,20h
525d cda853    call    53a8h
5260 e1        pop     hl
5261 23        inc     hl
5262 10ed      djnz    5351h
5264 c1        pop     bc
5265 3e40      ld      a,40h
5267 d1        pop     de
5268 cd8e51    call    518eh
526b cd8351    call    5183h
526e 3a38f2    ld      a,(0f238h)
5271 b7        or      a
5272 cae050    jp      z,50e0h
5275 47        ld      b,a
5276 3e20      ld      a,20h
5278 cda853    call    53a8h
527b 10fb      djnz    5378h
527d c3e050    jp      50e0h
5280 3eff      ld      a,0ffh
5282 1831      jr      52b5h
5284 cde352    call    52e3h
5287 da0451    jp      c,5104h
528a c5        push    bc
528b 4f        ld      c,a
528c 0600      ld      b,00h
528e 09        add     hl,bc
528f c1        pop     bc
5290 82        add     a,d
5291 57        ld      d,a
5292 c30451    jp      5104h
5295 cde352    call    52e3h
5298 da0451    jp      c,5104h
529b 1818      jr      52b5h
529d 7a        ld      a,d
529e bb        cp      e
529f d20451    jp      nc,5104h
52a2 14        inc     d
52a3 7e        ld      a,(hl)
52a4 3d        dec     a
52a5 23        inc     hl
52a6 c20451    jp      nz,5104h
52a9 14        inc     d
52aa 23        inc     hl
52ab c30451    jp      5104h
52ae 7e        ld      a,(hl)
52af 3d        dec     a
52b0 3e01      ld      a,01h
52b2 2001      jr      nz,52b5h
52b4 3c        inc     a
52b5 f5        push    af
52b6 af        xor     a
52b7 3239f2    ld      (0f239h),a
52ba 78        ld      a,b
52bb b9        cp      c
52bc 3021      jr      nc,52dfh
52be 7a        ld      a,d
52bf bb        cp      e
52c0 301d      jr      nc,52dfh
52c2 7e        ld      a,(hl)
52c3 fe01      cp      01h
52c5 2006      jr      nz,52cdh
52c7 78        ld      a,b
52c8 3c        inc     a
52c9 b9        cp      c
52ca 3013      jr      nc,52dfh
52cc 7e        ld      a,(hl)
52cd 23        inc     hl
52ce dd7700    ld      (ix+00h),a
52d1 dd23      inc     ix
52d3 cd5d53    call    535dh
52d6 04        inc     b
52d7 14        inc     d
52d8 f1        pop     af
52d9 3d        dec     a
52da 20d9      jr      nz,53b5h
52dc c30451    jp      5104h
52df f1        pop     af
52e0 c30451    jp      5104h
52e3 cd4e54    call    544eh
52e6 fe01      cp      01h
52e8 2035      jr      nz,531fh
52ea cd4e54    call    544eh
52ed fe40      cp      40h
52ef 382e      jr      c,531fh
52f1 fe60      cp      60h
52f3 302a      jr      nc,531fh
52f5 e5        push    hl
52f6 d5        push    de
52f7 c5        push    bc
52f8 fd210000  ld      iy,0000h
52fc 37        scf     
52fd f5        push    af
52fe 3e01      ld      a,01h
5300 cd1f53    call    531fh
5303 3815      jr      c,531ah
5305 4f        ld      c,a
5306 0600      ld      b,00h
5308 09        add     hl,bc
5309 82        add     a,d
530a 57        ld      d,a
530b fde5      push    iy
530d f1        pop     af
530e 81        add     a,c
530f f5        push    af
5310 fde1      pop     iy
5312 23        inc     hl
5313 f1        pop     af
5314 be        cp      (hl)
5315 2b        dec     hl
5316 20e4      jr      nz,53fch
5318 fde5      push    iy
531a f1        pop     af
531b c1        pop     bc
531c d1        pop     de
531d e1        pop     hl
531e c9        ret     
531f c5        push    bc
5320 f5        push    af
5321 7b        ld      a,e
5322 92        sub     d
5323 3826      jr      c,534bh
5325 2824      jr      z,534bh
5327 3d        dec     a
5328 2821      jr      z,534bh
532a 4f        ld      c,a
532b 0600      ld      b,00h
532d f1        pop     af
532e e5        push    hl
532f f5        push    af
5330 7e        ld      a,(hl)
5331 3d        dec     a
5332 2002      jr      nz,5336h
5334 23        inc     hl
5335 0d        dec     c
5336 f1        pop     af
5337 0c        inc     c
5338 0d        dec     c
5339 2004      jr      nz,533fh
533b e1        pop     hl
533c c1        pop     bc
533d 37        scf     
533e c9        ret     
533f 23        inc     hl
5340 edb1      cpir    
5342 e1        pop     hl
5343 2007      jr      nz,534ch
5345 7b        ld      a,e
5346 92        sub     d
5347 3d        dec     a
5348 91        sub     c
5349 c1        pop     bc
534a c9        ret     
534b f1        pop     af
534c c1        pop     bc
534d 37        scf     
534e c9        ret     
534f 3e08      ld      a,08h
5351 cda853    call    53a8h
5354 3e20      ld      a,20h
5356 cda853    call    53a8h
5359 3e08      ld      a,08h
535b 184b      jr      53a8h
535d fe20      cp      20h
535f 3047      jr      nc,53a8h
5361 fe09      cp      09h
5363 2843      jr      z,53a8h
5365 fe01      cp      01h
5367 283f      jr      z,53a8h
5369 f5        push    af
536a 3e5e      ld      a,5eh
536c cda853    call    53a8h
536f f1        pop     af
5370 f640      or      40h
5372 1834      jr      53a8h
5374 067f      ld      b,7fh
5376 08        ex      af,af'
5377 0d        dec     c
5378 0a        ld      a,(bc)
5379 15        dec     d
537a 0b        dec     bc
537b 0c        inc     c
537c 1b        dec     de
537d 12        ld      (de),a
537e 181c      jr      539ch
5380 1d        dec     e
5381 1e1f      ld      e,1fh
5383 01083b    ld      bc,3b08h
5386 51        ld      d,c
5387 1e51      ld      e,51h
5389 80        add     a,b
538a 52        ld      d,d
538b 66        ld      h,(hl)
538c 51        ld      d,c
538d ab        xor     e
538e 51        ld      d,c
538f ae        xor     (hl)
5390 52        ld      d,d
5391 95        sub     l
5392 52        ld      d,d
5393 325266    ld      (6652h),a
5396 51        ld      d,c
5397 84        add     a,h
5398 52        ld      d,d
5399 65        ld      h,l
539a 52        ld      d,d
539b 66        ld      h,(hl)
539c 51        ld      d,c
539d 7a        ld      a,d
539e 51        ld      d,c
539f 8d        adc     a,l
53a0 51        ld      d,c
53a1 ab        xor     e
53a2 51        ld      d,c
53a3 9d        sbc     a,l
53a4 52        ld      d,d
53a5 04        inc     b
53a6 51        ld      d,c
53a7 7b        ld      a,e
53a8 cdaff2    call    0f2afh
53ab fe0b      cp      0bh
53ad 2839      jr      z,53e8h
53af fe0c      cp      0ch
53b1 2835      jr      z,53e8h
53b3 fe1c      cp      1ch
53b5 281e      jr      z,53d5h
53b7 fe1d      cp      1dh
53b9 2835      jr      z,53f0h
53bb fe0d      cp      0dh
53bd 2829      jr      z,53e8h
53bf fe08      cp      08h
53c1 282d      jr      z,53f0h
53c3 fe09      cp      09h
53c5 2831      jr      z,53f8h
53c7 fe7f      cp      7fh
53c9 2825      jr      z,53f0h
53cb fe20      cp      20h
53cd 3806      jr      c,53d5h
53cf e5        push    hl
53d0 2137f2    ld      hl,0f237h
53d3 34        inc     (hl)
53d4 e1        pop     hl
53d5 c5        push    bc
53d6 47        ld      b,a
53d7 cd1254    call    5412h
53da 78        ld      a,b
53db cd8f40    call    408fh
53de 3a3bf2    ld      a,(0f23bh)
53e1 b7        or      a
53e2 78        ld      a,b
53e3 c1        pop     bc
53e4 c8        ret     z
53e5 c39b40    jp      409bh
53e8 f5        push    af
53e9 af        xor     a
53ea 3237f2    ld      (0f237h),a
53ed f1        pop     af
53ee 18e5      jr      54d5h
53f0 e5        push    hl
53f1 2137f2    ld      hl,0f237h
53f4 35        dec     (hl)
53f5 e1        pop     hl
53f6 18dd      jr      54d5h
53f8 3e20      ld      a,20h
53fa cda853    call    53a8h
53fd 3a37f2    ld      a,(0f237h)
5400 e607      and     07h
5402 20f4      jr      nz,54f8h
5404 c9        ret     
5405 fe10      cp      10h
5407 2814      jr      z,541dh
5409 fe0e      cp      0eh
540b 2810      jr      z,541dh
540d fe03      cp      03h
540f 280c      jr      z,541dh
5411 c9        ret     
5412 cd3440    call    4034h
5415 c8        ret     z
5416 fe13      cp      13h
5418 20eb      jr      nz,5505h
541a cd7840    call    4078h
541d cd7840    call    4078h
5420 fe10      cp      10h
5422 280d      jr      z,5431h
5424 fe0e      cp      0eh
5426 280f      jr      z,5437h
5428 fe03      cp      03h
542a c0        ret     nz
542b 2a25f3    ld      hl,(0f325h)
542e c3e8f1    jp      0f1e8h
5431 3e01      ld      a,01h
5433 323bf2    ld      (0f23bh),a
5436 c9        ret     
5437 af        xor     a
5438 323bf2    ld      (0f23bh),a
543b c9        ret     
543c cd1254    call    5412h
543f 3e00      ld      a,00h
5441 c8        ret     z
5442 f6ff      or      0ffh
5444 c9        ret     
5445 cd4e54    call    544eh
5448 f5        push    af
5449 cda853    call    53a8h
544c f1        pop     af
544d c9        ret     
544e cd1d54    call    541dh
5451 28fb      jr      z,554eh
5453 c9        ret     
5454 7b        ld      a,e
5455 feff      cp      0ffh
5457 c28f40    jp      nz,408fh
545a cd3440    call    4034h
545d c27840    jp      nz,4078h
5460 af        xor     a
5461 c9        ret     
5462 c37840    jp      4078h
5465 7b        ld      a,e
5466 f5        push    af
5467 cd1254    call    5412h
546a f1        pop     af
546b c39b40    jp      409bh
546e cd1254    call    5412h
5471 c371f3    jp      0f371h
5474 7b        ld      a,e
5475 f5        push    af
5476 cd1254    call    5412h
5479 f1        pop     af
547a c374f3    jp      0f374h
547d ed8c      db      0edh, 8ch        ; Undocumented 8 T-State NOP
547f 93        sub     e
5480 ef        rst     28h
5481 0c        inc     c
5482 88        adc     a,b
5483 39        add     hl,sp
5484 40        ld      b,b
5485 03        inc     bc
5486 70        ld      (hl),b
5487 48        ld      c,b
5488 97        sub     a
5489 f2fcba    jp      p,0bafch
548c 80        add     a,b
548d 0a        ld      a,(bc)
548e ccb55e    call    z,5eb5h
5491 af        xor     a
5492 29        add     hl,hl
5493 00        nop     
5494 00        nop     
5495 c9        ret     
5496 cdb2f2    call    0f2b2h
5499 cdc054    call    54c0h
549c 79        ld      a,c
549d 87        add     a,a
549e 87        add     a,a
549f 87        add     a,a
54a0 cb10      rl      b
54a2 87        add     a,a
54a3 cb10      rl      b
54a5 87        add     a,a
54a6 cb10      rl      b
54a8 cb3a      srl     d
54aa b2        or      d
54ab 5f        ld      e,a
54ac 50        ld      d,b
54ad ed4b49f2  ld      bc,(0f249h)
54b1 79        ld      a,c
54b2 87        add     a,a
54b3 87        add     a,a
54b4 87        add     a,a
54b5 87        add     a,a
54b6 87        add     a,a
54b7 cb10      rl      b
54b9 4f        ld      c,a
54ba 3a48f2    ld      a,(0f248h)
54bd b1        or      c
54be 4f        ld      c,a
54bf c9        ret     
54c0 cd7941    call    4179h
54c3 3846      jr      c,550bh
54c5 d5        push    de
54c6 e5        push    hl
54c7 ed5b4cf2  ld      de,(0f24ch)
54cb b7        or      a
54cc ed52      sbc     hl,de
54ce e1        pop     hl
54cf d1        pop     de
54d0 c8        ret     z
54d1 224cf2    ld      (0f24ch),hl
54d4 c5        push    bc
54d5 d5        push    de
54d6 4d        ld      c,l
54d7 44        ld      b,h
54d8 11b505    ld      de,05b5h
54db cd2f49    call    492fh
54de 79        ld      a,c
54df 87        add     a,a
54e0 87        add     a,a
54e1 87        add     a,a
54e2 0600      ld      b,00h
54e4 113455    ld      de,5534h
54e7 cd1555    call    5515h
54ea cb3f      srl     a
54ec 3004      jr      nc,54f2h
54ee 11c800    ld      de,00c8h
54f1 19        add     hl,de
54f2 cd2355    call    5523h
54f5 3e01      ld      a,01h
54f7 112bf2    ld      de,0f22bh
54fa cd1555    call    5515h
54fd 3249f2    ld      (0f249h),a
5500 2c        inc     l
5501 7d        ld      a,l
5502 3248f2    ld      (0f248h),a
5505 cd8855    call    5588h
5508 d1        pop     de
5509 c1        pop     bc
550a c9        ret     
550b c5        push    bc
550c d5        push    de
550d 2a4af2    ld      hl,(0f24ah)
5510 cd9d55    call    559dh
5513 18f0      jr      5605h
5515 eb        ex      de,hl
5516 4e        ld      c,(hl)
5517 23        inc     hl
5518 eb        ex      de,hl
5519 b7        or      a
551a ed42      sbc     hl,bc
551c 3803      jr      c,5521h
551e 3c        inc     a
551f 18f4      jr      5615h
5521 09        add     hl,bc
5522 c9        ret     
5523 cdb5f2    call    0f2b5h
5526 324af2    ld      (0f24ah),a
5529 e603      and     03h
552b 3e1c      ld      a,1ch
552d 2001      jr      nz,5530h
552f 3c        inc     a
5530 322cf2    ld      (0f22ch),a
5533 c9        ret     
5534 c8        ret     z
5535 a6        and     (hl)
5536 c8        ret     z
5537 a5        and     l
5538 c8        ret     z
5539 a5        and     l
553a c8        ret     z
553b a5        and     l
553c af        xor     a
553d 3206f3    ld      (0f306h),a
5540 cdc054    call    54c0h
5543 2a4af2    ld      hl,(0f24ah)
5546 11bc07    ld      de,07bch
5549 19        add     hl,de
554a ed5b48f2  ld      de,(0f248h)
554e 3a4ef2    ld      a,(0f24eh)
5551 c9        ret     
5552 0144f8    ld      bc,0f844h
5555 09        add     hl,bc
5556 3042      jr      nc,559ah
5558 7c        ld      a,h
5559 b7        or      a
555a 203e      jr      nz,559ah
555c 7d        ld      a,l
555d fe78      cp      78h
555f 3039      jr      nc,559ah
5561 cd2955    call    5529h
5564 1c        inc     e
5565 1d        dec     e
5566 2832      jr      z,559ah
5568 7a        ld      a,d
5569 b7        or      a
556a 282e      jr      z,559ah
556c fe0d      cp      0dh
556e 302a      jr      nc,559ah
5570 e5        push    hl
5571 212af2    ld      hl,0f22ah
5574 85        add     a,l
5575 6f        ld      l,a
5576 3001      jr      nc,5579h
5578 24        inc     h
5579 7e        ld      a,(hl)
557a e1        pop     hl
557b bb        cp      e
557c 381c      jr      c,559ah
557e ed5348f2  ld      (0f248h),de
5582 cd9d55    call    559dh
5585 cd1541    call    4115h
5588 ed4b4cf2  ld      bc,(0f24ch)
558c 110700    ld      de,0007h
558f 03        inc     bc
5590 03        inc     bc
5591 cd2f49    call    492fh
5594 7d        ld      a,l
5595 324ef2    ld      (0f24eh),a
5598 af        xor     a
5599 c9        ret     
559a 3eff      ld      a,0ffh
559c c9        ret     
559d 7d        ld      a,l
559e cd2355    call    5523h
55a1 4d        ld      c,l
55a2 cb39      srl     c
55a4 cb39      srl     c
55a6 0600      ld      b,00h
55a8 11b505    ld      de,05b5h
55ab cd1649    call    4916h
55ae 69        ld      l,c
55af 60        ld      h,b
55b0 3a4af2    ld      a,(0f24ah)
55b3 e603      and     03h
55b5 87        add     a,a
55b6 113455    ld      de,5534h
55b9 0600      ld      b,00h
55bb 3c        inc     a
55bc cdd255    call    55d2h
55bf 112bf2    ld      de,0f22bh
55c2 3a49f2    ld      a,(0f249h)
55c5 cdd255    call    55d2h
55c8 3a48f2    ld      a,(0f248h)
55cb 3d        dec     a
55cc 4f        ld      c,a
55cd 09        add     hl,bc
55ce 224cf2    ld      (0f24ch),hl
55d1 c9        ret     
55d2 3d        dec     a
55d3 c8        ret     z
55d4 eb        ex      de,hl
55d5 4e        ld      c,(hl)
55d6 23        inc     hl
55d7 eb        ex      de,hl
55d8 09        add     hl,bc
55d9 18f7      jr      56d2h
55db af        xor     a
55dc 3206f3    ld      (0f306h),a
55df cdc054    call    54c0h
55e2 60        ld      h,b
55e3 69        ld      l,c
55e4 af        xor     a
55e5 c9        ret     
55e6 44        ld      b,h
55e7 4d        ld      c,l
55e8 78        ld      a,b
55e9 fe18      cp      18h
55eb 30ad      jr      nc,569ah
55ed 3e3b      ld      a,3bh
55ef b9        cp      c
55f0 38a8      jr      c,569ah
55f2 ba        cp      d
55f3 38a5      jr      c,569ah
55f5 7b        ld      a,e
55f6 fe64      cp      64h
55f8 30a0      jr      nc,569ah
55fa cd3041    call    4130h
55fd af        xor     a
55fe c9        ret     
55ff 7b        ld      a,e
5600 320df3    ld      (0f30dh),a
5603 c9        ret     
5604 7e        ld      a,(hl)
5605 fe20      cp      20h
5607 37        scf     
5608 c8        ret     z
5609 010208    ld      bc,0802h
560c fee5      cp      0e5h
560e 2012      jr      nz,5622h
5610 3e05      ld      a,05h
5612 12        ld      (de),a
5613 23        inc     hl
5614 13        inc     de
5615 05        dec     b
5616 3ee5      ld      a,0e5h
5618 cd8156    call    5681h
561b 3005      jr      nc,5622h
561d 7e        ld      a,(hl)
561e 12        ld      (de),a
561f 23        inc     hl
5620 13        inc     de
5621 05        dec     b
5622 7e        ld      a,(hl)
5623 cd8156    call    5681h
5626 3009      jr      nc,5631h
5628 12        ld      (de),a
5629 23        inc     hl
562a 13        inc     de
562b 05        dec     b
562c 37        scf     
562d c8        ret     z
562e 7e        ld      a,(hl)
562f 1836      jr      5667h
5631 3a0ef3    ld      a,(0f30eh)
5634 a7        and     a
5635 7e        ld      a,(hl)
5636 2814      jr      z,564ch
5638 fe80      cp      80h
563a 3810      jr      c,564ch
563c feba      cp      0bah
563e 300c      jr      nc,564ch
5640 e5        push    hl
5641 c5        push    bc
5642 4f        ld      c,a
5643 0600      ld      b,00h
5645 211656    ld      hl,5616h
5648 09        add     hl,bc
5649 7e        ld      a,(hl)
564a c1        pop     bc
564b e1        pop     hl
564c fe61      cp      61h
564e 3806      jr      c,5656h
5650 fe7b      cp      7bh
5652 3002      jr      nc,5656h
5654 d620      sub     20h
5656 fe20      cp      20h
5658 d8        ret     c
5659 e5        push    hl
565a c5        push    bc
565b 217756    ld      hl,5677h
565e 010a00    ld      bc,000ah
5661 edb1      cpir    
5663 c1        pop     bc
5664 e1        pop     hl
5665 37        scf     
5666 c8        ret     z
5667 12        ld      (de),a
5668 23        inc     hl
5669 13        inc     de
566a 10b6      djnz    5722h
566c 0603      ld      b,03h
566e 0d        dec     c
566f 20b1      jr      nz,5722h
5671 b7        or      a
5672 7e        ld      a,(hl)
5673 320cf3    ld      (0f30ch),a
5676 c9        ret     
5677 2e22      ld      l,22h
5679 2f        cpl     
567a 5b        ld      e,e
567b 5d        ld      e,l
567c 3a2b3d    ld      a,(3d2bh)
567f 3b        dec     sp
5680 2c        inc     l
5681 e5        push    hl
5682 210ff3    ld      hl,0f30fh
5685 be        cp      (hl)
5686 3f        ccf     
5687 300b      jr      nc,5694h
5689 23        inc     hl
568a be        cp      (hl)
568b 3807      jr      c,5694h
568d 23        inc     hl
568e be        cp      (hl)
568f 3f        ccf     
5690 3002      jr      nc,5694h
5692 23        inc     hl
5693 be        cp      (hl)
5694 e1        pop     hl
5695 c9        ret     
5696 80        add     a,b
5697 9a        sbc     a,d
5698 45        ld      b,l
5699 41        ld      b,c
569a 8e        adc     a,(hl)
569b 41        ld      b,c
569c 8f        adc     a,a
569d 80        add     a,b
569e 45        ld      b,l
569f 45        ld      b,l
56a0 45        ld      b,l
56a1 49        ld      c,c
56a2 49        ld      c,c
56a3 49        ld      c,c
56a4 8e        adc     a,(hl)
56a5 8f        adc     a,a
56a6 90        sub     b
56a7 92        sub     d
56a8 92        sub     d
56a9 4f        ld      c,a
56aa 99        sbc     a,c
56ab 4f        ld      c,a
56ac 55        ld      d,l
56ad 55        ld      d,l
56ae 59        ld      e,c
56af 99        sbc     a,c
56b0 9a        sbc     a,d
56b1 9b        sbc     a,e
56b2 9c        sbc     a,h
56b3 9d        sbc     a,l
56b4 9e        sbc     a,(hl)
56b5 9f        sbc     a,a
56b6 41        ld      b,c
56b7 49        ld      c,c
56b8 4f        ld      c,a
56b9 55        ld      d,l
56ba a5        and     l
56bb a5        and     l
56bc a6        and     (hl)
56bd a7        and     a
56be a8        xor     b
56bf a9        xor     c
56c0 aa        xor     d
56c1 ab        xor     e
56c2 ac        xor     h
56c3 ad        xor     l
56c4 ae        xor     (hl)
56c5 af        xor     a
56c6 b0        or      b
56c7 b0        or      b
56c8 b2        or      d
56c9 b2        or      d
56ca b4        or      h
56cb b4        or      h
56cc b6        or      (hl)
56cd b6        or      (hl)
56ce b8        cp      b
56cf b8        cp      b
56d0 af        xor     a
56d1 47        ld      b,a
56d2 c9        ret     
56d3 fb        ei      
56d4 3e01      ld      a,01h
56d6 3206f3    ld      (0f306h),a
56d9 79        ld      a,c
56da fe31      cp      31h
56dc 30f2      jr      nc,57d0h
56de d611      sub     11h
56e0 2004      jr      nz,56e6h
56e2 ed5307f3  ld      (0f307h),de
56e6 3d        dec     a
56e7 2004      jr      nz,56edh
56e9 ed5b07f3  ld      de,(0f307h)
56ed e5        push    hl
56ee 210057    ld      hl,5700h
56f1 e3        ex      (sp),hl
56f2 e5        push    hl
56f3 210d57    ld      hl,570dh
56f6 0600      ld      b,00h
56f8 09        add     hl,bc
56f9 09        add     hl,bc
56fa 46        ld      b,(hl)
56fb 23        inc     hl
56fc 66        ld      h,(hl)
56fd 68        ld      l,b
56fe e3        ex      (sp),hl
56ff c9        ret     
5700 f5        push    af
5701 3a06f3    ld      a,(0f306h)
5704 b7        or      a
5705 2804      jr      z,570bh
5707 f1        pop     af
5708 6f        ld      l,a
5709 60        ld      h,b
570a c9        ret     
570b f1        pop     af
570c c9        ret     
570d a7        and     a
570e 40        ld      b,b
570f 45        ld      b,l
5710 54        ld      d,h
5711 a7        and     a
5712 53        ld      d,e
5713 6e        ld      l,(hl)
5714 54        ld      d,h
5715 74        ld      (hl),h
5716 54        ld      d,h
5717 65        ld      h,l
5718 54        ld      d,h
5719 54        ld      d,h
571a 54        ld      d,h
571b 62        ld      h,d
571c 54        ld      d,h
571d 4e        ld      c,(hl)
571e 54        ld      d,h
571f c9        ret     
5720 f1        pop     af
5721 e0        ret     po
5722 50        ld      d,b
5723 3c        inc     a
5724 54        ld      d,h
5725 ef        rst     28h
5726 41        ld      b,c
5727 9f        sbc     a,a
5728 50        ld      d,b
5729 d5        push    de
572a 50        ld      d,b
572b 62        ld      h,d
572c 44        ld      b,h
572d 6f        ld      l,a
572e 45        ld      b,l
572f b8        cp      b
5730 4f        ld      c,a
5731 0650      ld      b,50h
5733 6c        ld      l,h
5734 43        ld      b,e
5735 75        ld      (hl),l
5736 47        ld      b,a
5737 7d        ld      a,l
5738 47        ld      b,a
5739 1d        dec     e
573a 46        ld      b,(hl)
573b 92        sub     d
573c 43        ld      b,e
573d 4e        ld      c,(hl)
573e 50        ld      d,b
573f c45058    call    nz,5850h
5742 50        ld      d,b
5743 5d        ld      e,l
5744 50        ld      d,b
5745 d0        ret     nc
5746 56        ld      d,(hl)
5747 d0        ret     nc
5748 56        ld      d,(hl)
5749 d0        ret     nc
574a 56        ld      d,(hl)
574b d0        ret     nc
574c 56        ld      d,(hl)
574d d0        ret     nc
574e 56        ld      d,(hl)
574f 88        adc     a,b
5750 47        ld      b,a
5751 93        sub     e
5752 47        ld      b,a
5753 1e50      ld      e,50h
5755 c8        ret     z
5756 50        ld      d,b
5757 d0        ret     nc
5758 56        ld      d,(hl)
5759 be        cp      (hl)
575a 47        ld      b,a
575b b2        or      d
575c 47        ld      b,a
575d d1        pop     de
575e 47        ld      b,a
575f d0        ret     nc
5760 56        ld      d,(hl)
5761 3c        inc     a
5762 55        ld      d,l
5763 52        ld      d,d
5764 55        ld      d,l
5765 db55      in      a,(55h)
5767 e655      and     55h
5769 ff        rst     38h
576a 55        ld      d,l
576b ba        cp      d
576c 46        ld      b,(hl)
576d 2047      jr      nz,57b6h
576f cdab78    call    78abh
5772 f3        di      
5773 3a99fd    ld      a,(0fd99h)
5776 a7        and     a
5777 f8        ret     m
5778 c20c58    jp      nz,580ch
577b 2120fb    ld      hl,0fb20h
577e cb46      bit     0,(hl)
5780 200c      jr      nz,578eh
5782 cbc6      set     0,(hl)
5784 21caff    ld      hl,0ffcah
5787 060f      ld      b,0fh
5789 36c9      ld      (hl),0c9h
578b 23        inc     hl
578c 10fb      djnz    5889h
578e 2a48fc    ld      hl,(0fc48h)
5791 1101c0    ld      de,0c001h
5794 e7        rst     20h
5795 300c      jr      nc,57a3h
5797 3e06      ld      a,06h
5799 cd4101    call    0141h
579c f3        di      
579d 0f        rrca    
579e 3809      jr      c,57a9h
57a0 3e07      ld      a,07h
57a2 df        rst     18h
57a3 3eff      ld      a,0ffh
57a5 3299fd    ld      (0fd99h),a
57a8 c9        ret     
57a9 2199f3    ld      hl,0f399h
57ac 11c9f1    ld      de,0f1c9h
57af a7        and     a
57b0 ed52      sbc     hl,de
57b2 d4e85e    call    nc,5ee8h
57b5 d8        ret     c
57b6 e5        push    hl
57b7 2149fe    ld      hl,0fe49h
57ba 01c9f1    ld      bc,0f1c9h
57bd af        xor     a
57be 02        ld      (bc),a
57bf 03        inc     bc
57c0 23        inc     hl
57c1 7d        ld      a,l
57c2 b4        or      h
57c3 20f8      jr      nz,58bdh
57c5 22abf6    ld      (0f6abh),hl
57c8 0614      ld      b,14h
57ca 2121fb    ld      hl,0fb21h
57cd 77        ld      (hl),a
57ce 23        inc     hl
57cf 10fc      djnz    58cdh
57d1 214ff2    ld      hl,0f24fh
57d4 0669      ld      b,69h
57d6 36c9      ld      (hl),0c9h
57d8 23        inc     hl
57d9 10fb      djnz    58d6h
57db 3edb      ld      a,0dbh
57dd 21a8c9    ld      hl,0c9a8h
57e0 3265f3    ld      (0f365h),a
57e3 2266f3    ld      (0f366h),hl
57e6 3e06      ld      a,06h
57e8 cd4101    call    0141h
57eb e602      and     02h
57ed 323ff3    ld      (0f33fh),a
57f0 3e07      ld      a,07h
57f2 df        rst     18h
57f3 210758    ld      hl,5807h
57f6 11cbfe    ld      de,0fecbh
57f9 010500    ld      bc,0005h
57fc edb0      ldir    
57fe cd2d40    call    402dh
5801 32ccfe    ld      (0fecch),a
5804 d1        pop     de
5805 181e      jr      5825h
5807 f7        rst     30h
5808 00        nop     
5809 97        sub     a
580a 58        ld      e,b
580b c9        ret     
580c 2121fb    ld      hl,0fb21h
580f 0604      ld      b,04h
5811 af        xor     a
5812 86        add     a,(hl)
5813 dacc5e    jp      c,5ecch
5816 23        inc     hl
5817 23        inc     hl
5818 10f8      djnz    5912h
581a fe08      cp      08h
581c d0        ret     nc
581d 211900    ld      hl,0019h
5820 cde85e    call    5ee8h
5823 d8        ret     c
5824 eb        ex      de,hl
5825 cdcd5f    call    5fcdh
5828 73        ld      (hl),e
5829 23        inc     hl
582a 72        ld      (hl),d
582b 2aabf6    ld      hl,(0f6abh)
582e 110002    ld      de,0200h
5831 e7        rst     20h
5832 3004      jr      nc,5838h
5834 ed53abf6  ld      (0f6abh),de
5838 1121fb    ld      de,0fb21h
583b 010004    ld      bc,0400h
583e 1a        ld      a,(de)
583f a7        and     a
5840 2809      jr      z,584bh
5842 81        add     a,c
5843 4f        ld      c,a
5844 13        inc     de
5845 13        inc     de
5846 10f6      djnz    593eh
5848 c3cc5e    jp      5ecch
584b 3a3ff3    ld      a,(0f33fh)
584e a7        and     a
584f 79        ld      a,c
5850 cd1079    call    7910h
5853 85        add     a,l
5854 fe09      cp      09h
5856 7d        ld      a,l
5857 3803      jr      c,585ch
5859 3e08      ld      a,08h
585b 91        sub     c
585c c5        push    bc
585d 12        ld      (de),a
585e 13        inc     de
585f cd2d40    call    402dh
5862 12        ld      (de),a
5863 c1        pop     bc
5864 0600      ld      b,00h
5866 2155f3    ld      hl,0f355h
5869 09        add     hl,bc
586a 09        add     hl,bc
586b e5        push    hl
586c 1b        dec     de
586d 1a        ld      a,(de)
586e f5        push    af
586f 4f        ld      c,a
5870 111500    ld      de,0015h
5873 cd1649    call    4916h
5876 69        ld      l,c
5877 60        ld      h,b
5878 cdc85e    call    5ec8h
587b eb        ex      de,hl
587c f1        pop     af
587d e1        pop     hl
587e 73        ld      (hl),e
587f 23        inc     hl
5880 72        ld      (hl),d
5881 23        inc     hl
5882 e5        push    hl
5883 21af74    ld      hl,74afh
5886 011500    ld      bc,0015h
5889 edb0      ldir    
588b e1        pop     hl
588c 3d        dec     a
588d 20ef      jr      nz,597eh
588f cd4c79    call    794ch
5892 2199fd    ld      hl,0fd99h
5895 34        inc     (hl)
5896 c9        ret     
5897 21cbfe    ld      hl,0fecbh
589a 0605      ld      b,05h
589c 36c9      ld      (hl),0c9h
589e 23        inc     hl
589f 10fb      djnz    599ch
58a1 2199fd    ld      hl,0fd99h
58a4 af        xor     a
58a5 be        cp      (hl)
58a6 77        ld      (hl),a
58a7 f0        ret     p
58a8 cd2d62    call    622dh
58ab 3248f3    ld      (0f348h),a
58ae 219773    ld      hl,7397h
58b1 11c9f1    ld      de,0f1c9h
58b4 016e00    ld      bc,006eh
58b7 edb0      ldir    
58b9 213400    ld      hl,0034h
58bc 110ff3    ld      de,0f30fh
58bf 010400    ld      bc,0004h
58c2 edb0      ldir    
58c4 3a2b00    ld      a,(002bh)
58c7 0f        rrca    
58c8 0f        rrca    
58c9 0f        rrca    
58ca 0f        rrca    
58cb e607      and     07h
58cd 320ef3    ld      (0f30eh),a
58d0 3eff      ld      a,0ffh
58d2 3241f2    ld      (0f241h),a
58d5 3246f2    ld      (0f246h),a
58d8 324df2    ld      (0f24dh),a
58db 3e0d      ld      a,0dh
58dd 325bf5    ld      (0f55bh),a
58e0 3e07      ld      a,07h
58e2 3245f3    ld      (0f345h),a
58e5 21b505    ld      hl,05b5h
58e8 223bf3    ld      (0f33bh),hl
58eb 0608      ld      b,08h
58ed 2168f3    ld      hl,0f368h
58f0 36c3      ld      (hl),0c3h
58f2 23        inc     hl
58f3 23        inc     hl
58f4 23        inc     hl
58f5 10f9      djnz    59f0h
58f7 2aabf6    ld      hl,(0f6abh)
58fa e5        push    hl
58fb cdc85e    call    5ec8h
58fe 224df3    ld      (0f34dh),hl
5901 e1        pop     hl
5902 e5        push    hl
5903 cdc85e    call    5ec8h
5906 224ff3    ld      (0f34fh),hl
5909 e1        pop     hl
590a cdc85e    call    5ec8h
590d 2251f3    ld      (0f351h),hl
5910 2121fb    ld      hl,0fb21h
5913 0604      ld      b,04h
5915 af        xor     a
5916 86        add     a,(hl)
5917 dacc5e    jp      c,5ecch
591a 23        inc     hl
591b 23        inc     hl
591c 10f8      djnz    5a16h
591e fe09      cp      09h
5920 d2cc5e    jp      nc,5ecch
5923 3247f3    ld      (0f347h),a
5926 47        ld      b,a
5927 0e00      ld      c,00h
5929 2155f3    ld      hl,0f355h
592c 5e        ld      e,(hl)
592d 23        inc     hl
592e 56        ld      d,(hl)
592f 23        inc     hl
5930 e5        push    hl
5931 d5        push    de
5932 dde1      pop     ix
5934 dd7100    ld      (ix+00h),c
5937 0c        inc     c
5938 c5        push    bc
5939 dd4e02    ld      c,(ix+02h)
593c dd4603    ld      b,(ix+03h)
593f dd5e10    ld      e,(ix+10h)
5942 1600      ld      d,00h
5944 cd1649    call    4916h
5947 03        inc     bc
5948 69        ld      l,c
5949 60        ld      h,b
594a cdc85e    call    5ec8h
594d 2249f3    ld      (0f349h),hl
5950 36ff      ld      (hl),0ffh
5952 23        inc     hl
5953 dd7513    ld      (ix+13h),l
5956 dd7414    ld      (ix+14h),h
5959 c1        pop     bc
595a e1        pop     hl
595b 10cf      djnz    5a2ch
595d 2127f3    ld      hl,0f327h
5960 363e      ld      (hl),3eh
5962 23        inc     hl
5963 361a      ld      (hl),1ah
5965 0608      ld      b,08h
5967 23        inc     hl
5968 36c9      ld      (hl),0c9h
596a 10fb      djnz    5a67h
596c 2127f3    ld      hl,0f327h
596f 2272f3    ld      (0f372h),hl
5972 212cf3    ld      hl,0f32ch
5975 2275f3    ld      (0f375h),hl
5978 2131f3    ld      hl,0f331h
597b 227ef3    ld      (0f37eh),hl
597e 212f7d    ld      hl,7d2fh
5981 3ac1fc    ld      a,(0fcc1h)
5984 cd0c00    call    000ch
5987 f5        push    af
5988 23        inc     hl
5989 3ac1fc    ld      a,(0fcc1h)
598c cd0c00    call    000ch
598f d1        pop     de
5990 67        ld      h,a
5991 6a        ld      l,d
5992 e5        push    hl
5993 dde1      pop     ix
5995 fd2ac0fc  ld      iy,(0fcc0h)
5999 cd1c00    call    001ch
599c cdb840    call    40b8h
599f cd6e5c    call    5c6eh
59a2 3ac1fc    ld      a,(0fcc1h)
59a5 3241f3    ld      (0f341h),a
59a8 3242f3    ld      (0f342h),a
59ab cd985f    call    5f98h
59ae 3243f3    ld      (0f343h),a
59b1 cd955f    call    5f95h
59b4 3244f3    ld      (0f344h),a
59b7 0e00      ld      c,00h
59b9 cd525e    call    5e52h
59bc 3803      jr      c,59c1h
59be 3241f3    ld      (0f341h),a
59c1 0e40      ld      c,40h
59c3 cd525e    call    5e52h
59c6 3803      jr      c,59cbh
59c8 3242f3    ld      (0f342h),a
59cb 3100c2    ld      sp,0c200h
59ce 3adafe    ld      a,(0fedah)
59d1 fec9      cp      0c9h
59d3 2806      jr      z,59dbh
59d5 dd21177d  ld      ix,7d17h
59d9 1812      jr      59edh
59db 21c9fc    ld      hl,0fcc9h
59de 0640      ld      b,40h
59e0 7e        ld      a,(hl)
59e1 87        add     a,a
59e2 3805      jr      c,59e9h
59e4 23        inc     hl
59e5 10f9      djnz    5ae0h
59e7 180a      jr      59f3h
59e9 dd21147e  ld      ix,7e14h
59ed cd165c    call    5c16h
59f0 c35901    jp      0159h
59f3 213a5b    ld      hl,5b3ah
59f6 e5        push    hl
59f7 cde75a    call    5ae7h
59fa d8        ret     c
59fb cddb5a    call    5adbh
59fe 2a48fc    ld      hl,(0fc48h)
5a01 110080    ld      de,8000h
5a04 e7        rst     20h
5a05 c0        ret     nz
5a06 2141f3    ld      hl,0f341h
5a09 3ac1fc    ld      a,(0fcc1h)
5a0c be        cp      (hl)
5a0d c8        ret     z
5a0e 23        inc     hl
5a0f be        cp      (hl)
5a10 c8        ret     z
5a11 af        xor     a
5a12 cd9a60    call    609ah
5a15 2a49f3    ld      hl,(0f349h)
5a18 224bf3    ld      (0f34bh),hl
5a1b cde75a    call    5ae7h
5a1e da3a5b    jp      c,5b3ah
5a21 3246f3    ld      (0f346h),a
5a24 3a41f3    ld      a,(0f341h)
5a27 2600      ld      h,00h
5a29 cdc264    call    64c2h
5a2c 37        scf     
5a2d f4a264    call    p,64a2h
5a30 dcaf64    call    c,64afh
5a33 af        xor     a
5a34 6f        ld      l,a
5a35 67        ld      h,a
5a36 77        ld      (hl),a
5a37 2c        inc     l
5a38 20fc      jr      nz,5b36h
5a3a 012600    ld      bc,0026h
5a3d cdad5e    call    5eadh
5a40 226ff3    ld      (0f36fh),hl
5a43 eb        ex      de,hl
5a44 217b63    ld      hl,637bh
5a47 edb0      ldir    
5a49 011900    ld      bc,0019h
5a4c cdad5e    call    5eadh
5a4f 5d        ld      e,l
5a50 54        ld      d,h
5a51 2269f3    ld      (0f369h),hl
5a54 23        inc     hl
5a55 23        inc     hl
5a56 226cf3    ld      (0f36ch),hl
5a59 21a163    ld      hl,63a1h
5a5c edb0      ldir    
5a5e 016801    ld      bc,0168h
5a61 cdad5e    call    5eadh
5a64 e5        push    hl
5a65 eb        ex      de,hl
5a66 21f463    ld      hl,63f4h
5a69 e5        push    hl
5a6a edb0      ldir    
5a6c c1        pop     bc
5a6d d1        pop     de
5a6e d5        push    de
5a6f 211701    ld      hl,0117h
5a72 19        add     hl,de
5a73 363b      ld      (hl),3bh
5a75 23        inc     hl
5a76 3600      ld      (hl),00h
5a78 21ba63    ld      hl,63bah
5a7b cd0663    call    6306h
5a7e 210f5b    ld      hl,5b0fh
5a81 af        xor     a
5a82 47        ld      b,a
5a83 57        ld      d,a
5a84 5e        ld      e,(hl)
5a85 bb        cp      e
5a86 2810      jr      z,5a98h
5a88 23        inc     hl
5a89 4e        ld      c,(hl)
5a8a 23        inc     hl
5a8b e3        ex      (sp),hl
5a8c 09        add     hl,bc
5a8d eb        ex      de,hl
5a8e 36c3      ld      (hl),0c3h
5a90 23        inc     hl
5a91 73        ld      (hl),e
5a92 23        inc     hl
5a93 72        ld      (hl),d
5a94 eb        ex      de,hl
5a95 e3        ex      (sp),hl
5a96 18ec      jr      5b84h
5a98 e1        pop     hl
5a99 215c65    ld      hl,655ch
5a9c 113b00    ld      de,003bh
5a9f 011a00    ld      bc,001ah
5aa2 edb0      ldir    
5aa4 014500    ld      bc,0045h
5aa7 cdad5e    call    5eadh
5aaa e5        push    hl
5aab eb        ex      de,hl
5aac 213663    ld      hl,6336h
5aaf e5        push    hl
5ab0 edb0      ldir    
5ab2 c1        pop     bc
5ab3 d1        pop     de
5ab4 d5        push    de
5ab5 212e63    ld      hl,632eh
5ab8 cd0663    call    6306h
5abb e1        pop     hl
5abc 3ec3      ld      a,0c3h
5abe 323800    ld      (0038h),a
5ac1 223900    ld      (0039h),hl
5ac4 112200    ld      de,0022h
5ac7 19        add     hl,de
5ac8 ed5b4bf3  ld      de,(0f34bh)
5acc 73        ld      (hl),e
5acd 23        inc     hl
5ace 72        ld      (hl),d
5acf 01a000    ld      bc,00a0h
5ad2 cdad5e    call    5eadh
5ad5 3ec3      ld      a,0c3h
5ad7 cd625c    call    5c62h
5ada 37        scf     
5adb 2123f3    ld      hl,0f323h
5ade 1168f3    ld      de,0f368h
5ae1 3a40f3    ld      a,(0f340h)
5ae4 c31ec0    jp      0c01eh
5ae7 3ab074    ld      a,(74b0h)
5aea 4f        ld      c,a
5aeb 0601      ld      b,01h
5aed 2a51f3    ld      hl,(0f351h)
5af0 e5        push    hl
5af1 af        xor     a
5af2 5f        ld      e,a
5af3 57        ld      d,a
5af4 cd4401    call    0144h
5af7 3eff      ld      a,0ffh
5af9 3246f2    ld      (0f246h),a
5afc e1        pop     hl
5afd d8        ret     c
5afe 7e        ld      a,(hl)
5aff 1100c0    ld      de,0c000h
5b02 010001    ld      bc,0100h
5b05 edb0      ldir    
5b07 feeb      cp      0ebh
5b09 c8        ret     z
5b0a fee9      cp      0e9h
5b0c c8        ret     z
5b0d 37        scf     
5b0e c9        ret     
5b0f 0c        inc     c
5b10 00        nop     
5b11 14        inc     d
5b12 21302e    ld      hl,2e30h
5b15 1c        inc     e
5b16 12        ld      (de),a
5b17 24        inc     h
5b18 47        ld      b,a
5b19 00        nop     
5b1a 00        nop     
5b1b 41        ld      b,c
5b1c 55        ld      d,l
5b1d 54        ld      d,h
5b1e 4f        ld      c,a
5b1f 45        ld      b,l
5b20 58        ld      e,b
5b21 45        ld      b,l
5b22 43        ld      b,e
5b23 42        ld      b,d
5b24 41        ld      b,c
5b25 53        ld      d,e
5b26 00        nop     
5b27 52        ld      d,d
5b28 55        ld      d,l
5b29 4e        ld      c,(hl)
5b2a 224155    ld      (5541h),hl
5b2d 54        ld      d,h
5b2e 4f        ld      c,a
5b2f 45        ld      b,l
5b30 58        ld      e,b
5b31 45        ld      b,l
5b32 43        ld      b,e
5b33 2e42      ld      l,42h
5b35 41        ld      b,c
5b36 53        ld      d,e
5b37 00        nop     
5b38 92        sub     d
5b39 5b        ld      e,e
5b3a cd605c    call    5c60h
5b3d 21275b    ld      hl,5b27h
5b40 1168f5    ld      de,0f568h
5b43 011100    ld      bc,0011h
5b46 edb0      ldir    
5b48 2140f3    ld      hl,0f340h
5b4b 7e        ld      a,(hl)
5b4c a7        and     a
5b4d 74        ld      (hl),h
5b4e 201e      jr      nz,5b6eh
5b50 3246f3    ld      (0f346h),a
5b53 21385b    ld      hl,5b38h
5b56 2223f3    ld      (0f323h),hl
5b59 211a5b    ld      hl,5b1ah
5b5c 1179f5    ld      de,0f579h
5b5f 012500    ld      bc,0025h
5b62 d5        push    de
5b63 edb0      ldir    
5b65 d1        pop     de
5b66 cd6244    call    4462h
5b69 3c        inc     a
5b6a 2826      jr      z,5b92h
5b6c 1832      jr      5ba0h
5b6e 3a0000    ld      a,(0000h)
5b71 fec3      cp      0c3h
5b73 2027      jr      nz,5b9ch
5b75 218000    ld      hl,0080h
5b78 46        ld      b,(hl)
5b79 04        inc     b
5b7a 05        dec     b
5b7b 281f      jr      z,5b9ch
5b7d 23        inc     hl
5b7e 7e        ld      a,(hl)
5b7f fe20      cp      20h
5b81 2004      jr      nz,5b87h
5b83 10f8      djnz    5c7dh
5b85 1815      jr      5b9ch
5b87 af        xor     a
5b88 48        ld      c,b
5b89 47        ld      b,a
5b8a 116cf5    ld      de,0f56ch
5b8d edb0      ldir    
5b8f 12        ld      (de),a
5b90 180e      jr      5ba0h
5b92 3100c2    ld      sp,0c200h
5b95 3a38f3    ld      a,(0f338h)
5b98 a7        and     a
5b99 cc3f5d    call    z,5d3fh
5b9c af        xor     a
5b9d 326bf5    ld      (0f56bh),a
5ba0 3100c2    ld      sp,0c200h
5ba3 3a43f3    ld      a,(0f343h)
5ba6 2680      ld      h,80h
5ba8 cd2400    call    0024h
5bab 3ac1fc    ld      a,(0fcc1h)
5bae 2600      ld      h,00h
5bb0 cd2400    call    0024h
5bb3 2a48fc    ld      hl,(0fc48h)
5bb6 af        xor     a
5bb7 77        ld      (hl),a
5bb8 23        inc     hl
5bb9 2276f6    ld      (0f676h),hl
5bbc 77        ld      (hl),a
5bbd 23        inc     hl
5bbe 77        ld      (hl),a
5bbf 23        inc     hl
5bc0 22c2f6    ld      (0f6c2h),hl
5bc3 21ffff    ld      hl,0ffffh
5bc6 221cf4    ld      (0f41ch),hl
5bc9 cd165c    call    5c16h
5bcc ed7b74f6  ld      sp,(0f674h)
5bd0 3eff      ld      a,0ffh
5bd2 32def3    ld      (0f3deh),a
5bd5 3e0c      ld      a,0ch
5bd7 df        rst     18h
5bd8 dd21317d  ld      ix,7d31h
5bdc cd5901    call    0159h
5bdf cd865f    call    5f86h
5be2 0d        dec     c
5be3 0a        ld      a,(bc)
5be4 44        ld      b,h
5be5 69        ld      l,c
5be6 73        ld      (hl),e
5be7 6b        ld      l,e
5be8 2042      jr      nz,5c2ch
5bea 41        ld      b,c
5beb 53        ld      d,e
5bec 49        ld      c,c
5bed 43        ld      b,e
5bee 2056      jr      nz,5c46h
5bf0 65        ld      h,l
5bf1 72        ld      (hl),d
5bf2 73        ld      (hl),e
5bf3 69        ld      l,c
5bf4 6f        ld      l,a
5bf5 6e        ld      l,(hl)
5bf6 2031      jr      nz,5c29h
5bf8 2e32      ld      l,32h
5bfa 0d        dec     c
5bfb 0a        ld      a,(bc)
5bfc 00        nop     
5bfd 217341    ld      hl,4173h
5c00 e5        push    hl
5c01 2167f5    ld      hl,0f567h
5c04 e5        push    hl
5c05 219ef5    ld      hl,0f59eh
5c08 e5        push    hl
5c09 36e1      ld      (hl),0e1h
5c0b 23        inc     hl
5c0c 36c9      ld      (hl),0c9h
5c0e 3ac1fc    ld      a,(0fcc1h)
5c11 2640      ld      h,40h
5c13 c32400    jp      0024h
5c16 21ae72    ld      hl,72aeh
5c19 2223f3    ld      (0f323h),hl
5c1c 216c5c    ld      hl,5c6ch
5c1f 2225f3    ld      (0f325h),hl
5c22 2a49f3    ld      hl,(0f349h)
5c25 224afc    ld      (0fc4ah),hl
5c28 3a45f3    ld      a,(0f345h)
5c2b 4f        ld      c,a
5c2c 0600      ld      b,00h
5c2e 112500    ld      de,0025h
5c31 cd1649    call    4916h
5c34 cdb85e    call    5eb8h
5c37 2253f3    ld      (0f353h),hl
5c3a 011900    ld      bc,0019h
5c3d cdb85e    call    5eb8h
5c40 2278f3    ld      (0f378h),hl
5c43 eb        ex      de,hl
5c44 21ed62    ld      hl,62edh
5c47 edb0      ldir    
5c49 21f5ff    ld      hl,0fff5h
5c4c 19        add     hl,de
5c4d 227bf3    ld      (0f37bh),hl
5c50 3a48f3    ld      a,(0f348h)
5c53 11f9ff    ld      de,0fff9h
5c56 19        add     hl,de
5c57 77        ld      (hl),a
5c58 110e00    ld      de,000eh
5c5b 19        add     hl,de
5c5c 77        ld      (hl),a
5c5d cd5f5f    call    5f5fh
5c60 3ec9      ld      a,0c9h
5c62 3268f3    ld      (0f368h),a
5c65 326bf3    ld      (0f36bh),a
5c68 326ef3    ld      (0f36eh),a
5c6b c9        ret     
5c6c a7        and     a
5c6d 40        ld      b,b
5c6e 21e862    ld      hl,62e8h
5c71 11bcfe    ld      de,0febch
5c74 010500    ld      bc,0005h
5c77 edb0      ldir    
5c79 21965c    ld      hl,5c96h
5c7c 5e        ld      e,(hl)
5c7d 23        inc     hl
5c7e 56        ld      d,(hl)
5c7f 23        inc     hl
5c80 7b        ld      a,e
5c81 b2        or      d
5c82 c8        ret     z
5c83 eb        ex      de,hl
5c84 36f7      ld      (hl),0f7h
5c86 23        inc     hl
5c87 3a48f3    ld      a,(0f348h)
5c8a 77        ld      (hl),a
5c8b 23        inc     hl
5c8c eb        ex      de,hl
5c8d eda0      ldi     
5c8f eda0      ldi     
5c91 3ec9      ld      a,0c9h
5c93 12        ld      (de),a
5c94 18e6      jr      5d7ch
5c96 ef        rst     28h
5c97 fd966b    sub     (iy+6bh)
5c9a 17        rla     
5c9b fe75      cp      75h
5c9d 6b        ld      l,e
5c9e f9        ld      sp,hl
5c9f fd206f    jr      nz,5d11h
5ca2 fefd      cp      0fdh
5ca4 00        nop     
5ca5 6f        ld      l,a
5ca6 08        ex      af,af'
5ca7 fe7b      cp      7bh
5ca9 70        ld      (hl),b
5caa 12        ld      (de),a
5cab fe61      cp      61h
5cad 70        ld      (hl),b
5cae 21fed7    ld      hl,0d7feh
5cb1 6c        ld      l,h
5cb2 26fe      ld      h,0feh
5cb4 d66c      sub     6ch
5cb6 2b        dec     hl
5cb7 fe49      cp      49h
5cb9 6c        ld      l,h
5cba 30fe      jr      nc,5dbah
5cbc af        xor     a
5cbd 6d        ld      l,l
5cbe 35        dec     (hl)
5cbf feb2      cp      0b2h
5cc1 6d        ld      l,l
5cc2 3afeb5    ld      a,(0b5feh)
5cc5 6d        ld      l,l
5cc6 3f        ccf     
5cc7 fed7      cp      0d7h
5cc9 6d        ld      l,l
5cca 44        ld      b,h
5ccb feda      cp      0dah
5ccd 6d        ld      l,l
5cce 49        ld      c,c
5ccf fedd      cp      0ddh
5cd1 6d        ld      l,l
5cd2 4e        ld      c,(hl)
5cd3 fea4      cp      0a4h
5cd5 66        ld      h,(hl)
5cd6 58        ld      e,b
5cd7 feb3      cp      0b3h
5cd9 66        ld      h,(hl)
5cda 5d        ld      e,l
5cdb fefc      cp      0fch
5cdd 66        ld      h,(hl)
5cde 62        ld      h,d
5cdf fed0      cp      0d0h
5ce1 68        ld      l,b
5ce2 71        ld      (hl),c
5ce3 fe0e      cp      0eh
5ce5 69        ld      l,c
5ce6 76        halt    
5ce7 fe39      cp      39h
5ce9 69        ld      l,c
5cea 7b        ld      a,e
5ceb fe88      cp      88h
5ced 6e        ld      l,(hl)
5cee 80        add     a,b
5cef feda      cp      0dah
5cf1 6b        ld      l,e
5cf2 85        add     a,l
5cf3 fe8e      cp      8eh
5cf5 68        ld      l,b
5cf6 8a        adc     a,d
5cf7 fe19      cp      19h
5cf9 68        ld      l,b
5cfa 99        sbc     a,c
5cfb fe0d      cp      0dh
5cfd 70        ld      (hl),b
5cfe 9e        sbc     a,(hl)
5cff fe09      cp      09h
5d01 70        ld      (hl),b
5d02 a3        and     e
5d03 fe70      cp      70h
5d05 6e        ld      l,(hl)
5d06 ad        xor     l
5d07 fe75      cp      75h
5d09 68        ld      l,b
5d0a b2        or      d
5d0b fe23      cp      23h
5d0d 73        ld      (hl),e
5d0e b7        or      a
5d0f fe7c      cp      7ch
5d11 73        ld      (hl),e
5d12 fdfed3    cp      0d3h
5d15 71        ld      (hl),c
5d16 a7        and     a
5d17 ff        rst     38h
5d18 55        ld      d,l
5d19 60        ld      h,b
5d1a ac        xor     h
5d1b ff        rst     38h
5d1c b0        or      b
5d1d 60        ld      h,b
5d1e 31f3d3    ld      sp,0d3f3h
5d21 56        ld      d,(hl)
5d22 00        nop     
5d23 00        nop     
5d24 01482d    ld      bc,2d48h
5d27 01412d    ld      bc,2d41h
5d2a 014729    ld      bc,2947h
5d2d 3a004d    ld      a,(4d00h)
5d30 2d        dec     l
5d31 44        ld      b,h
5d32 2d        dec     l
5d33 59        ld      e,c
5d34 29        add     hl,hl
5d35 3a0044    ld      a,(4400h)
5d38 2d        dec     l
5d39 4d        ld      c,l
5d3a 2d        dec     l
5d3b 59        ld      e,c
5d3c 29        add     hl,hl
5d3d 3a00ed    ld      a,(0ed00h)
5d40 73        ld      (hl),e
5d41 c0        ret     nz
5d42 f5        push    af
5d43 3e14      ld      a,14h
5d45 32c2f5    ld      (0f5c2h),a
5d48 cd865f    call    5f86h
5d4b 0d        dec     c
5d4c 0a        ld      a,(bc)
5d4d 45        ld      b,l
5d4e 6e        ld      l,(hl)
5d4f 74        ld      (hl),h
5d50 65        ld      h,l
5d51 72        ld      (hl),d
5d52 2064      jr      nz,5db8h
5d54 61        ld      h,c
5d55 74        ld      (hl),h
5d56 65        ld      h,l
5d57 2028      jr      nz,5d81h
5d59 00        nop     
5d5a 00        nop     
5d5b 00        nop     
5d5c 00        nop     
5d5d 00        nop     
5d5e 00        nop     
5d5f 3a0ef3    ld      a,(0f30eh)
5d62 fe01      cp      01h
5d64 21245d    ld      hl,5d24h
5d67 3808      jr      c,5d71h
5d69 212f5d    ld      hl,5d2fh
5d6c 2803      jr      z,5d71h
5d6e 21375d    ld      hl,5d37h
5d71 cd8c5f    call    5f8ch
5d74 214b5e    ld      hl,5e4bh
5d77 2225f3    ld      (0f325h),hl
5d7a 11c2f5    ld      de,0f5c2h
5d7d cde050    call    50e0h
5d80 21c4f5    ld      hl,0f5c4h
5d83 7e        ld      a,(hl)
5d84 fe0d      cp      0dh
5d86 c8        ret     z
5d87 3a0ef3    ld      a,(0f30eh)
5d8a a7        and     a
5d8b 2012      jr      nz,5d9fh
5d8d cd0d5e    call    5e0dh
5d90 cde95d    call    5de9h
5d93 51        ld      d,c
5d94 7e        ld      a,(hl)
5d95 23        inc     hl
5d96 b8        cp      b
5d97 2032      jr      nz,5dcbh
5d99 cdf85d    call    5df8h
5d9c 59        ld      e,c
5d9d 181a      jr      5db9h
5d9f cdf85d    call    5df8h
5da2 51        ld      d,c
5da3 cde95d    call    5de9h
5da6 59        ld      e,c
5da7 7e        ld      a,(hl)
5da8 23        inc     hl
5da9 b8        cp      b
5daa 2005      jr      nz,5db1h
5dac cd0d5e    call    5e0dh
5daf 1808      jr      5db9h
5db1 d5        push    de
5db2 cd3c55    call    553ch
5db5 e5        push    hl
5db6 dde1      pop     ix
5db8 d1        pop     de
5db9 3a0ef3    ld      a,(0f30eh)
5dbc fe02      cp      02h
5dbe 3803      jr      c,5dc3h
5dc0 7b        ld      a,e
5dc1 5a        ld      e,d
5dc2 57        ld      d,a
5dc3 dde5      push    ix
5dc5 e1        pop     hl
5dc6 cd5255    call    5552h
5dc9 b7        or      a
5dca c8        ret     z
5dcb ed7bc0f5  ld      sp,(0f5c0h)
5dcf cd865f    call    5f86h
5dd2 0d        dec     c
5dd3 0a        ld      a,(bc)
5dd4 49        ld      c,c
5dd5 6e        ld      l,(hl)
5dd6 76        halt    
5dd7 61        ld      h,c
5dd8 6c        ld      l,h
5dd9 69        ld      l,c
5dda 64        ld      h,h
5ddb 2064      jr      nz,5e41h
5ddd 61        ld      h,c
5dde 74        ld      (hl),h
5ddf 65        ld      h,l
5de0 00        nop     
5de1 00        nop     
5de2 00        nop     
5de3 00        nop     
5de4 00        nop     
5de5 00        nop     
5de6 c3485d    jp      5d48h
5de9 7e        ld      a,(hl)
5dea 23        inc     hl
5deb 47        ld      b,a
5dec fe2f      cp      2fh
5dee 2808      jr      z,5df8h
5df0 fe2e      cp      2eh
5df2 2804      jr      z,5df8h
5df4 fe2d      cp      2dh
5df6 20d3      jr      nz,5ecbh
5df8 cd415e    call    5e41h
5dfb 38ce      jr      c,5ecbh
5dfd 4f        ld      c,a
5dfe cd415e    call    5e41h
5e01 d8        ret     c
5e02 f5        push    af
5e03 79        ld      a,c
5e04 87        add     a,a
5e05 87        add     a,a
5e06 81        add     a,c
5e07 87        add     a,a
5e08 4f        ld      c,a
5e09 f1        pop     af
5e0a 81        add     a,c
5e0b 4f        ld      c,a
5e0c c9        ret     
5e0d cdf85d    call    5df8h
5e10 41        ld      b,c
5e11 cd415e    call    5e41h
5e14 3816      jr      c,5e2ch
5e16 2b        dec     hl
5e17 cdf85d    call    5df8h
5e1a e5        push    hl
5e1b c5        push    bc
5e1c 48        ld      c,b
5e1d 0600      ld      b,00h
5e1f d5        push    de
5e20 116400    ld      de,0064h
5e23 cd1649    call    4916h
5e26 d1        pop     de
5e27 e1        pop     hl
5e28 2600      ld      h,00h
5e2a 180f      jr      5e3bh
5e2c e5        push    hl
5e2d 48        ld      c,b
5e2e 0600      ld      b,00h
5e30 216c07    ld      hl,076ch
5e33 79        ld      a,c
5e34 fe50      cp      50h
5e36 3003      jr      nc,5e3bh
5e38 21d007    ld      hl,07d0h
5e3b 09        add     hl,bc
5e3c e5        push    hl
5e3d dde1      pop     ix
5e3f e1        pop     hl
5e40 c9        ret     
5e41 7e        ld      a,(hl)
5e42 d630      sub     30h
5e44 d8        ret     c
5e45 fe0a      cp      0ah
5e47 3f        ccf     
5e48 d8        ret     c
5e49 23        inc     hl
5e4a c9        ret     
5e4b 4d        ld      c,l
5e4c 5e        ld      e,(hl)
5e4d ed7bc0f5  ld      sp,(0f5c0h)
5e51 c9        ret     
5e52 21c1fc    ld      hl,0fcc1h
5e55 0604      ld      b,04h
5e57 af        xor     a
5e58 e603      and     03h
5e5a b6        or      (hl)
5e5b c5        push    bc
5e5c e5        push    hl
5e5d 61        ld      h,c
5e5e 2e10      ld      l,10h
5e60 f5        push    af
5e61 cd0c00    call    000ch
5e64 2f        cpl     
5e65 5f        ld      e,a
5e66 f1        pop     af
5e67 d5        push    de
5e68 f5        push    af
5e69 cd1400    call    0014h
5e6c f1        pop     af
5e6d d1        pop     de
5e6e f5        push    af
5e6f d5        push    de
5e70 cd0c00    call    000ch
5e73 c1        pop     bc
5e74 47        ld      b,a
5e75 79        ld      a,c
5e76 2f        cpl     
5e77 5f        ld      e,a
5e78 f1        pop     af
5e79 f5        push    af
5e7a c5        push    bc
5e7b cd1400    call    0014h
5e7e c1        pop     bc
5e7f 79        ld      a,c
5e80 b8        cp      b
5e81 2017      jr      nz,5e9ah
5e83 f1        pop     af
5e84 2d        dec     l
5e85 20d9      jr      nz,5f60h
5e87 24        inc     h
5e88 24        inc     h
5e89 24        inc     h
5e8a 24        inc     h
5e8b 4f        ld      c,a
5e8c 7c        ld      a,h
5e8d fe40      cp      40h
5e8f 2805      jr      z,5e96h
5e91 fe80      cp      80h
5e93 79        ld      a,c
5e94 20c8      jr      nz,5f5eh
5e96 79        ld      a,c
5e97 e1        pop     hl
5e98 e1        pop     hl
5e99 c9        ret     
5e9a f1        pop     af
5e9b e1        pop     hl
5e9c c1        pop     bc
5e9d a7        and     a
5e9e f2a75e    jp      p,5ea7h
5ea1 c604      add     a,04h
5ea3 fe90      cp      90h
5ea5 38b4      jr      c,5f5bh
5ea7 23        inc     hl
5ea8 3c        inc     a
5ea9 10ad      djnz    5f58h
5eab 37        scf     
5eac c9        ret     
5ead 2a4bf3    ld      hl,(0f34bh)
5eb0 a7        and     a
5eb1 ed42      sbc     hl,bc
5eb3 224bf3    ld      (0f34bh),hl
5eb6 1809      jr      5ec1h
5eb8 2a4afc    ld      hl,(0fc4ah)
5ebb a7        and     a
5ebc ed42      sbc     hl,bc
5ebe 224afc    ld      (0fc4ah),hl
5ec1 3809      jr      c,5ecch
5ec3 7c        ld      a,h
5ec4 fec2      cp      0c2h
5ec6 1803      jr      5ecbh
5ec8 cde85e    call    5ee8h
5ecb d0        ret     nc
5ecc cd865f    call    5f86h
5ecf 0c        inc     c
5ed0 4e        ld      c,(hl)
5ed1 6f        ld      l,a
5ed2 2065      jr      nz,5f39h
5ed4 6e        ld      l,(hl)
5ed5 6f        ld      l,a
5ed6 75        ld      (hl),l
5ed7 67        ld      h,a
5ed8 68        ld      l,b
5ed9 206d      jr      nz,5f48h
5edb 65        ld      h,l
5edc 6d        ld      l,l
5edd 6f        ld      l,a
5ede 72        ld      (hl),d
5edf 79        ld      a,c
5ee0 00        nop     
5ee1 00        nop     
5ee2 00        nop     
5ee3 00        nop     
5ee4 00        nop     
5ee5 00        nop     
5ee6 f3        di      
5ee7 76        halt    
5ee8 7d        ld      a,l
5ee9 b4        or      h
5eea c8        ret     z
5eeb af        xor     a
5eec 95        sub     l
5eed 6f        ld      l,a
5eee 3e00      ld      a,00h
5ef0 9c        sbc     a,h
5ef1 67        ld      h,a
5ef2 4d        ld      c,l
5ef3 44        ld      b,h
5ef4 39        add     hl,sp
5ef5 3f        ccf     
5ef6 d8        ret     c
5ef7 ed5b48fc  ld      de,(0fc48h)
5efb ed52      sbc     hl,de
5efd d8        ret     c
5efe 7c        ld      a,h
5eff fe02      cp      02h
5f01 d8        ret     c
5f02 c5        push    bc
5f03 210000    ld      hl,0000h
5f06 39        add     hl,sp
5f07 5d        ld      e,l
5f08 54        ld      d,h
5f09 09        add     hl,bc
5f0a e5        push    hl
5f0b 2a74f6    ld      hl,(0f674h)
5f0e a7        and     a
5f0f ed52      sbc     hl,de
5f11 4d        ld      c,l
5f12 44        ld      b,h
5f13 03        inc     bc
5f14 e1        pop     hl
5f15 f9        ld      sp,hl
5f16 eb        ex      de,hl
5f17 edb0      ldir    
5f19 c1        pop     bc
5f1a 2a4afc    ld      hl,(0fc4ah)
5f1d 09        add     hl,bc
5f1e 224afc    ld      (0fc4ah),hl
5f21 11eafd    ld      de,0fdeah
5f24 19        add     hl,de
5f25 2260f8    ld      (0f860h),hl
5f28 eb        ex      de,hl
5f29 2a72f6    ld      hl,(0f672h)
5f2c 09        add     hl,bc
5f2d 2272f6    ld      (0f672h),hl
5f30 2a62f8    ld      hl,(0f862h)
5f33 09        add     hl,bc
5f34 2262f8    ld      (0f862h),hl
5f37 2a74f6    ld      hl,(0f674h)
5f3a 09        add     hl,bc
5f3b 2274f6    ld      (0f674h),hl
5f3e 2b        dec     hl
5f3f 2b        dec     hl
5f40 22b1f6    ld      (0f6b1h),hl
5f43 6b        ld      l,e
5f44 62        ld      h,d
5f45 23        inc     hl
5f46 23        inc     hl
5f47 23        inc     hl
5f48 23        inc     hl
5f49 3e02      ld      a,02h
5f4b eb        ex      de,hl
5f4c 73        ld      (hl),e
5f4d 23        inc     hl
5f4e 72        ld      (hl),d
5f4f 23        inc     hl
5f50 eb        ex      de,hl
5f51 010700    ld      bc,0007h
5f54 70        ld      (hl),b
5f55 09        add     hl,bc
5f56 70        ld      (hl),b
5f57 010201    ld      bc,0102h
5f5a 09        add     hl,bc
5f5b 3d        dec     a
5f5c 20ed      jr      nz,604bh
5f5e c9        ret     
5f5f 3e01      ld      a,01h
5f61 325ff8    ld      (0f85fh),a
5f64 2a4afc    ld      hl,(0fc4ah)
5f67 11eafd    ld      de,0fdeah
5f6a 19        add     hl,de
5f6b 2260f8    ld      (0f860h),hl
5f6e 5d        ld      e,l
5f6f 54        ld      d,h
5f70 2b        dec     hl
5f71 2b        dec     hl
5f72 2272f6    ld      (0f672h),hl
5f75 01c800    ld      bc,00c8h
5f78 a7        and     a
5f79 ed42      sbc     hl,bc
5f7b e5        push    hl
5f7c 210d00    ld      hl,000dh
5f7f 19        add     hl,de
5f80 2262f8    ld      (0f862h),hl
5f83 e1        pop     hl
5f84 18b5      jr      603bh
5f86 e3        ex      (sp),hl
5f87 cd8c5f    call    5f8ch
5f8a e3        ex      (sp),hl
5f8b c9        ret     
5f8c 7e        ld      a,(hl)
5f8d 23        inc     hl
5f8e a7        and     a
5f8f c8        ret     z
5f90 cd8f40    call    408fh
5f93 18f7      jr      608ch
5f95 0606      ld      b,06h
5f97 210604    ld      hl,0406h
5f9a cd65f3    call    0f365h
5f9d c5        push    bc
5f9e 0f        rrca    
5f9f 10fd      djnz    609eh
5fa1 cdec5f    call    5fech
5fa4 c1        pop     bc
5fa5 b6        or      (hl)
5fa6 4f        ld      c,a
5fa7 23        inc     hl
5fa8 23        inc     hl
5fa9 23        inc     hl
5faa 23        inc     hl
5fab 7e        ld      a,(hl)
5fac 05        dec     b
5fad 05        dec     b
5fae 0f        rrca    
5faf 10fd      djnz    60aeh
5fb1 180b      jr      5fbeh
5fb3 cde75f    call    5fe7h
5fb6 b6        or      (hl)
5fb7 f0        ret     p
5fb8 4f        ld      c,a
5fb9 23        inc     hl
5fba 23        inc     hl
5fbb 23        inc     hl
5fbc 23        inc     hl
5fbd 7e        ld      a,(hl)
5fbe e60c      and     0ch
5fc0 b1        or      c
5fc1 c9        ret     
5fc2 cdcd5f    call    5fcdh
5fc5 7e        ld      a,(hl)
5fc6 23        inc     hl
5fc7 66        ld      h,(hl)
5fc8 6f        ld      l,a
5fc9 e5        push    hl
5fca dde1      pop     ix
5fcc c9        ret     
5fcd cde75f    call    5fe7h
5fd0 87        add     a,a
5fd1 87        add     a,a
5fd2 87        add     a,a
5fd3 37        scf     
5fd4 8f        adc     a,a
5fd5 4f        ld      c,a
5fd6 7e        ld      a,(hl)
5fd7 87        add     a,a
5fd8 9f        sbc     a,a
5fd9 e60c      and     0ch
5fdb 23        inc     hl
5fdc 23        inc     hl
5fdd 23        inc     hl
5fde 23        inc     hl
5fdf a6        and     (hl)
5fe0 b1        or      c
5fe1 87        add     a,a
5fe2 2109fd    ld      hl,0fd09h
5fe5 180c      jr      5ff3h
5fe7 cd65f3    call    0f365h
5fea 0f        rrca    
5feb 0f        rrca    
5fec e603      and     03h
5fee 21c1fc    ld      hl,0fcc1h
5ff1 0600      ld      b,00h
5ff3 4f        ld      c,a
5ff4 09        add     hl,bc
5ff5 c9        ret     
5ff6 3a9ffd    ld      a,(0fd9fh)
5ff9 fec9      cp      0c9h
5ffb 2815      jr      z,6012h
5ffd e5        push    hl
5ffe 3a99fd    ld      a,(0fd99h)
6001 2129fb    ld      hl,0fb29h
6004 cdf15f    call    5ff1h
6007 09        add     hl,bc
6008 09        add     hl,bc
6009 eb        ex      de,hl
600a 21a0fd    ld      hl,0fda0h
600d 0e03      ld      c,03h
600f edb0      ldir    
6011 e1        pop     hl
6012 f3        di      
6013 3ef7      ld      a,0f7h
6015 329ffd    ld      (0fd9fh),a
6018 22a1fd    ld      (0fda1h),hl
601b 3ec9      ld      a,0c9h
601d 32a3fd    ld      (0fda3h),a
6020 cd2d40    call    402dh
6023 32a0fd    ld      (0fda0h),a
6026 c9        ret     
6027 f5        push    af
6028 cd2d40    call    402dh
602b 0604      ld      b,04h
602d 1129fb    ld      de,0fb29h
6030 2122fb    ld      hl,0fb22h
6033 be        cp      (hl)
6034 2809      jr      z,603fh
6036 13        inc     de
6037 13        inc     de
6038 13        inc     de
6039 23        inc     hl
603a 23        inc     hl
603b 10f6      djnz    6133h
603d f1        pop     af
603e c9        ret     
603f eb        ex      de,hl
6040 7e        ld      a,(hl)
6041 a7        and     a
6042 28f9      jr      z,613dh
6044 f5        push    af
6045 fde1      pop     iy
6047 23        inc     hl
6048 4e        ld      c,(hl)
6049 23        inc     hl
604a 46        ld      b,(hl)
604b c5        push    bc
604c dde1      pop     ix
604e f1        pop     af
604f c31c00    jp      001ch
6052 a7        and     a
6053 3837      jr      c,608ch
6055 dde5      push    ix
6057 fde5      push    iy
6059 e5        push    hl
605a f5        push    af
605b cd8660    call    6086h
605e 6f        ld      l,a
605f f1        pop     af
6060 7d        ld      a,l
6061 dd211040  ld      ix,4010h
6065 1814      jr      607bh
6067 dde5      push    ix
6069 dd211340  ld      ix,4013h
606d 1806      jr      6075h
606f dde5      push    ix
6071 dd211640  ld      ix,4016h
6075 fde5      push    iy
6077 e5        push    hl
6078 cd8660    call    6086h
607b e1        pop     hl
607c e5        push    hl
607d cd1c00    call    001ch
6080 c36e63    jp      636eh
6083 00        nop     
6084 00        nop     
6085 00        nop     
6086 323ff3    ld      (0f33fh),a
6089 2121fb    ld      hl,0fb21h
608c 96        sub     (hl)
608d 3804      jr      c,6093h
608f 23        inc     hl
6090 23        inc     hl
6091 18f9      jr      618ch
6093 86        add     a,(hl)
6094 23        inc     hl
6095 66        ld      h,(hl)
6096 e5        push    hl
6097 fde1      pop     iy
6099 c9        ret     
609a 2155f3    ld      hl,0f355h
609d cdf15f    call    5ff1h
60a0 09        add     hl,bc
60a1 5e        ld      e,(hl)
60a2 23        inc     hl
60a3 56        ld      d,(hl)
60a4 211300    ld      hl,0013h
60a7 19        add     hl,de
60a8 5e        ld      e,(hl)
60a9 23        inc     hl
60aa 56        ld      d,(hl)
60ab 1b        dec     de
60ac eb        ex      de,hl
60ad 36ff      ld      (hl),0ffh
60af c9        ret     
60b0 a7        and     a
60b1 ed7339f3  ld      (0f339h),sp
60b5 d4d662    call    nc,62d6h
60b8 e5        push    hl
60b9 c5        push    bc
60ba 3a47f3    ld      a,(0f347h)
60bd 3d        dec     a
60be 2841      jr      z,6101h
60c0 cd865f    call    5f86h
60c3 44        ld      b,h
60c4 72        ld      (hl),d
60c5 69        ld      l,c
60c6 76        halt    
60c7 65        ld      h,l
60c8 206e      jr      nz,6138h
60ca 61        ld      h,c
60cb 6d        ld      l,l
60cc 65        ld      h,l
60cd 3f        ccf     
60ce 2028      jr      nz,60f8h
60d0 00        nop     
60d1 00        nop     
60d2 00        nop     
60d3 00        nop     
60d4 00        nop     
60d5 00        nop     
60d6 3a47f3    ld      a,(0f347h)
60d9 47        ld      b,a
60da 3e41      ld      a,41h
60dc 1807      jr      60e5h
60de f5        push    af
60df 3e2c      ld      a,2ch
60e1 cd8f40    call    408fh
60e4 f1        pop     af
60e5 cd8f40    call    408fh
60e8 3c        inc     a
60e9 10f3      djnz    61deh
60eb cd865f    call    5f86h
60ee 29        add     hl,hl
60ef 2000      jr      nz,60f1h
60f1 cd9561    call    6195h
60f4 cdc662    call    62c6h
60f7 e6df      and     0dfh
60f9 d641      sub     41h
60fb 2147f3    ld      hl,0f347h
60fe be        cp      (hl)
60ff 30bf      jr      nc,61c0h
6101 cd9a60    call    609ah
6104 cd8660    call    6086h
6107 fde5      push    iy
6109 f5        push    af
610a fde5      push    iy
610c dd211940  ld      ix,4019h
6110 cd1c00    call    001ch
6113 7d        ld      a,l
6114 b4        or      h
6115 2827      jr      z,613eh
6117 f1        pop     af
6118 f5        push    af
6119 cd0c00    call    000ch
611c a7        and     a
611d 2807      jr      z,6126h
611f cd8f40    call    408fh
6122 23        inc     hl
6123 f1        pop     af
6124 18f2      jr      6218h
6126 f1        pop     af
6127 cd865f    call    5f86h
612a 3f        ccf     
612b 2000      jr      nz,612dh
612d cd9561    call    6195h
6130 d631      sub     31h
6132 fe09      cp      09h
6134 30f7      jr      nc,622dh
6136 c631      add     a,31h
6138 cdc662    call    62c6h
613b d630      sub     30h
613d f5        push    af
613e cd7461    call    6174h
6141 f1        pop     af
6142 d1        pop     de
6143 fde1      pop     iy
6145 c1        pop     bc
6146 e1        pop     hl
6147 dd211c40  ld      ix,401ch
614b cd1c00    call    001ch
614e 21e061    ld      hl,61e0h
6151 300a      jr      nc,615dh
6153 214862    ld      hl,6248h
6156 cdf15f    call    5ff1h
6159 7e        ld      a,(hl)
615a 23        inc     hl
615b 66        ld      h,(hl)
615c 6f        ld      l,a
615d cdc962    call    62c9h
6160 cd8c5f    call    5f8ch
6163 c3c962    jp      62c9h
6166 af        xor     a
6167 3236f3    ld      (0f336h),a
616a dd215601  ld      ix,0156h
616e cdab40    call    40abh
6171 c37840    jp      4078h
6174 cd865f    call    5f86h
6177 53        ld      d,e
6178 74        ld      (hl),h
6179 72        ld      (hl),d
617a 69        ld      l,c
617b 6b        ld      l,e
617c 65        ld      h,l
617d 2061      jr      nz,61e0h
617f 206b      jr      nz,61ech
6181 65        ld      h,l
6182 79        ld      a,c
6183 2077      jr      nz,61fch
6185 68        ld      l,b
6186 65        ld      h,l
6187 6e        ld      l,(hl)
6188 2072      jr      nz,61fch
618a 65        ld      h,l
618b 61        ld      h,c
618c 64        ld      h,h
618d 79        ld      a,c
618e 2000      jr      nz,6190h
6190 00        nop     
6191 00        nop     
6192 00        nop     
6193 00        nop     
6194 00        nop     
6195 cd6661    call    6166h
6198 fe03      cp      03h
619a c0        ret     nz
619b ed7b39f3  ld      sp,(0f339h)
619f cd865f    call    5f86h
61a2 0d        dec     c
61a3 0a        ld      a,(bc)
61a4 41        ld      b,c
61a5 62        ld      h,d
61a6 6f        ld      l,a
61a7 72        ld      (hl),d
61a8 74        ld      (hl),h
61a9 65        ld      h,l
61aa 64        ld      h,h
61ab 00        nop     
61ac c9        ret     
61ad 57        ld      d,a
61ae 72        ld      (hl),d
61af 69        ld      l,c
61b0 74        ld      (hl),h
61b1 65        ld      h,l
61b2 2070      jr      nz,6224h
61b4 72        ld      (hl),d
61b5 6f        ld      l,a
61b6 74        ld      (hl),h
61b7 65        ld      h,l
61b8 63        ld      h,e
61b9 74        ld      (hl),h
61ba 65        ld      h,l
61bb 64        ld      h,h
61bc 00        nop     
61bd 4e        ld      c,(hl)
61be 6f        ld      l,a
61bf 74        ld      (hl),h
61c0 2072      jr      nz,6234h
61c2 65        ld      h,l
61c3 61        ld      h,c
61c4 64        ld      h,h
61c5 79        ld      a,c
61c6 00        nop     
61c7 44        ld      b,h
61c8 69        ld      l,c
61c9 73        ld      (hl),e
61ca 6b        ld      l,e
61cb 2065      jr      nz,6232h
61cd 72        ld      (hl),d
61ce 72        ld      (hl),d
61cf 6f        ld      l,a
61d0 72        ld      (hl),d
61d1 00        nop     
61d2 42        ld      b,d
61d3 61        ld      h,c
61d4 64        ld      h,h
61d5 2070      jr      nz,6247h
61d7 61        ld      h,c
61d8 72        ld      (hl),d
61d9 61        ld      h,c
61da 6d        ld      l,l
61db 65        ld      h,l
61dc 74        ld      (hl),h
61dd 65        ld      h,l
61de 72        ld      (hl),d
61df 00        nop     
61e0 46        ld      b,(hl)
61e1 6f        ld      l,a
61e2 72        ld      (hl),d
61e3 6d        ld      l,l
61e4 61        ld      h,c
61e5 74        ld      (hl),h
61e6 2063      jr      nz,624bh
61e8 6f        ld      l,a
61e9 6d        ld      l,l
61ea 70        ld      (hl),b
61eb 6c        ld      l,h
61ec 65        ld      h,l
61ed 74        ld      (hl),h
61ee 65        ld      h,l
61ef 00        nop     
61f0 00        nop     
61f1 1198f6    ld      de,0f698h
61f4 2a78f6    ld      hl,(0f678h)
61f7 22f8f7    ld      (0f7f8h),hl
61fa 3e03      ld      a,03h
61fc 3263f6    ld      (0f663h),a
61ff cdf32e    call    2ef3h
6202 119bf6    ld      de,0f69bh
6205 e7        rst     20h
6206 2278f6    ld      (0f678h),hl
6209 c0        ret     nz
620a c3f772    jp      72f7h
620d 2121fb    ld      hl,0fb21h
6210 0604      ld      b,04h
6212 23        inc     hl
6213 7e        ld      a,(hl)
6214 f5        push    af
6215 fde1      pop     iy
6217 23        inc     hl
6218 e5        push    hl
6219 c5        push    bc
621a 211f40    ld      hl,401fh
621d e5        push    hl
621e dde1      pop     ix
6220 a7        and     a
6221 c40c00    call    nz,000ch
6224 a7        and     a
6225 c41c00    call    nz,001ch
6228 c1        pop     bc
6229 e1        pop     hl
622a 10e6      djnz    6312h
622c c9        ret     
622d 3ad0fe    ld      a,(0fed0h)
6230 fec9      cp      0c9h
6232 2811      jr      z,6245h
6234 21f272    ld      hl,72f2h
6237 11d5fe    ld      de,0fed5h
623a 010500    ld      bc,0005h
623d edb0      ldir    
623f cd2d40    call    402dh
6242 32d6fe    ld      (0fed6h),a
6245 c32d40    jp      402dh
6248 ad        xor     l
6249 61        ld      h,c
624a bd        cp      l
624b 61        ld      h,c
624c c7        rst     00h
624d 61        ld      h,c
624e c7        rst     00h
624f 61        ld      h,c
6250 c7        rst     00h
6251 61        ld      h,c
6252 c7        rst     00h
6253 61        ld      h,c
6254 d261d0    jp      nc,0d061h
6257 5e        ld      e,(hl)
6258 c7        rst     00h
6259 61        ld      h,c
625a 3a3ff3    ld      a,(0f33fh)
625d c641      add     a,41h
625f cd4ff2    call    0f24fh
6262 f5        push    af
6263 cd865f    call    5f86h
6266 0d        dec     c
6267 0a        ld      a,(bc)
6268 49        ld      c,c
6269 6e        ld      l,(hl)
626a 73        ld      (hl),e
626b 65        ld      h,l
626c 72        ld      (hl),d
626d 74        ld      (hl),h
626e 2064      jr      nz,62d4h
6270 69        ld      l,c
6271 73        ld      (hl),e
6272 6b        ld      l,e
6273 65        ld      h,l
6274 74        ld      (hl),h
6275 74        ld      (hl),h
6276 65        ld      h,l
6277 2066      jr      nz,62dfh
6279 6f        ld      l,a
627a 72        ld      (hl),d
627b 2064      jr      nz,62e1h
627d 72        ld      (hl),d
627e 69        ld      l,c
627f 76        halt    
6280 65        ld      h,l
6281 2000      jr      nz,6283h
6283 00        nop     
6284 00        nop     
6285 00        nop     
6286 00        nop     
6287 00        nop     
6288 00        nop     
6289 00        nop     
628a 00        nop     
628b 00        nop     
628c 00        nop     
628d f1        pop     af
628e cd8f40    call    408fh
6291 cd865f    call    5f86h
6294 3a0d0a    ld      a,(0a0dh)
6297 61        ld      h,c
6298 6e        ld      l,(hl)
6299 64        ld      h,h
629a 2073      jr      nz,630fh
629c 74        ld      (hl),h
629d 72        ld      (hl),d
629e 69        ld      l,c
629f 6b        ld      l,e
62a0 65        ld      h,l
62a1 2061      jr      nz,6304h
62a3 206b      jr      nz,6310h
62a5 65        ld      h,l
62a6 79        ld      a,c
62a7 2077      jr      nz,6320h
62a9 68        ld      l,b
62aa 65        ld      h,l
62ab 6e        ld      l,(hl)
62ac 2072      jr      nz,6320h
62ae 65        ld      h,l
62af 61        ld      h,c
62b0 64        ld      h,h
62b1 79        ld      a,c
62b2 00        nop     
62b3 00        nop     
62b4 00        nop     
62b5 00        nop     
62b6 00        nop     
62b7 00        nop     
62b8 00        nop     
62b9 00        nop     
62ba 00        nop     
62bb 00        nop     
62bc 00        nop     
62bd cd6661    call    6166h
62c0 fe03      cp      03h
62c2 28f9      jr      z,63bdh
62c4 1803      jr      62c9h
62c6 cd8f40    call    408fh
62c9 f5        push    af
62ca 3e0d      ld      a,0dh
62cc cd8f40    call    408fh
62cf 3e0a      ld      a,0ah
62d1 cd8f40    call    408fh
62d4 f1        pop     af
62d5 c9        ret     
62d6 2100ff    ld      hl,0ff00h
62d9 39        add     hl,sp
62da ed5bc6f6  ld      de,(0f6c6h)
62de af        xor     a
62df ed52      sbc     hl,de
62e1 4d        ld      c,l
62e2 44        ld      b,h
62e3 eb        ex      de,hl
62e4 d0        ret     nc
62e5 4f        ld      c,a
62e6 47        ld      b,a
62e7 c9        ret     
62e8 33        inc     sp
62e9 33        inc     sp
62ea c31d6f    jp      6f1dh
62ed 7a        ld      a,d
62ee fe09      cp      09h
62f0 d2c96e    jp      nc,6ec9h
62f3 f7        rst     30h
62f4 00        nop     
62f5 a7        and     a
62f6 6a        ld      l,d
62f7 e5        push    hl
62f8 c3f46e    jp      6ef4h
62fb 7a        ld      a,d
62fc fe09      cp      09h
62fe d2956e    jp      nc,6e95h
6301 f7        rst     30h
6302 00        nop     
6303 e7        rst     20h
6304 69        ld      l,c
6305 c9        ret     
6306 d5        push    de
6307 eb        ex      de,hl
6308 a7        and     a
6309 ed42      sbc     hl,bc
630b e5        push    hl
630c dde1      pop     ix
630e eb        ex      de,hl
630f d1        pop     de
6310 4e        ld      c,(hl)
6311 23        inc     hl
6312 46        ld      b,(hl)
6313 23        inc     hl
6314 79        ld      a,c
6315 a0        and     b
6316 3c        inc     a
6317 c8        ret     z
6318 d5        push    de
6319 eb        ex      de,hl
631a 09        add     hl,bc
631b 23        inc     hl
631c 4e        ld      c,(hl)
631d 23        inc     hl
631e 46        ld      b,(hl)
631f e5        push    hl
6320 dde5      push    ix
6322 e1        pop     hl
6323 09        add     hl,bc
6324 4d        ld      c,l
6325 44        ld      b,h
6326 e1        pop     hl
6327 70        ld      (hl),b
6328 2b        dec     hl
6329 71        ld      (hl),c
632a eb        ex      de,hl
632b d1        pop     de
632c 18e2      jr      6410h
632e 0c        inc     c
632f 00        nop     
6330 1e00      ld      e,00h
6332 2f        cpl     
6333 00        nop     
6334 ff        rst     38h
6335 ff        rst     38h
6336 dde5      push    ix
6338 fde5      push    iy
633a e5        push    hl
633b d5        push    de
633c c5        push    bc
633d f5        push    af
633e d9        exx     
633f 08        ex      af,af'
6340 f5        push    af
6341 e5        push    hl
6342 2a5f63    ld      hl,(635fh)
6345 7d        ld      a,l
6346 b4        or      h
6347 e1        pop     hl
6348 dd213800  ld      ix,0038h
634c fd2ac0fc  ld      iy,(0fcc0h)
6350 2023      jr      nz,6375h
6352 f1        pop     af
6353 ed735f63  ld      (635fh),sp
6357 310000    ld      sp,0000h
635a cd1c00    call    001ch
635d f3        di      
635e 310000    ld      sp,0000h
6361 e5        push    hl
6362 210000    ld      hl,0000h
6365 225f63    ld      (635fh),hl
6368 e1        pop     hl
6369 08        ex      af,af'
636a d9        exx     
636b f1        pop     af
636c c1        pop     bc
636d d1        pop     de
636e e1        pop     hl
636f fde1      pop     iy
6371 dde1      pop     ix
6373 fb        ei      
6374 c9        ret     
6375 f1        pop     af
6376 cd1c00    call    001ch
6379 18ee      jr      6469h
637b f5        push    af
637c e5        push    hl
637d d5        push    de
637e c5        push    bc
637f cd2d40    call    402dh
6382 f5        push    af
6383 2640      ld      h,40h
6385 3a42f3    ld      a,(0f342h)
6388 cd2400    call    0024h
638b f1        pop     af
638c c1        pop     bc
638d d1        pop     de
638e e1        pop     hl
638f edb0      ldir    
6391 e5        push    hl
6392 d5        push    de
6393 c5        push    bc
6394 cd68f3    call    0f368h
6397 2640      ld      h,40h
6399 cd2400    call    0024h
639c c1        pop     bc
639d d1        pop     de
639e e1        pop     hl
639f f1        pop     af
63a0 c9        ret     
63a1 1806      jr      63a9h
63a3 f5        push    af
63a4 3a42f3    ld      a,(0f342h)
63a7 1804      jr      63adh
63a9 f5        push    af
63aa 3a48f3    ld      a,(0f348h)
63ad e5        push    hl
63ae d5        push    de
63af c5        push    bc
63b0 2640      ld      h,40h
63b2 cd2400    call    0024h
63b5 c1        pop     bc
63b6 d1        pop     de
63b7 e1        pop     hl
63b8 f1        pop     af
63b9 c9        ret     
63ba 00        nop     
63bb 00        nop     
63bc 03        inc     bc
63bd 00        nop     
63be 17        rla     
63bf 00        nop     
63c0 1c        inc     e
63c1 00        nop     
63c2 220025    ld      (2500h),hl
63c5 00        nop     
63c6 39        add     hl,sp
63c7 00        nop     
63c8 3f        ccf     
63c9 00        nop     
63ca 69        ld      l,c
63cb 00        nop     
63cc 6c        ld      l,h
63cd 00        nop     
63ce 7e        ld      a,(hl)
63cf 00        nop     
63d0 94        sub     h
63d1 00        nop     
63d2 a8        xor     b
63d3 00        nop     
63d4 ab        xor     e
63d5 00        nop     
63d6 bc        cp      h
63d7 00        nop     
63d8 1000      djnz    63dah
63da 13        inc     de
63db 00        nop     
63dc 310034    ld      sp,3400h
63df 00        nop     
63e0 78        ld      a,b
63e1 00        nop     
63e2 7b        ld      a,e
63e3 00        nop     
63e4 b5        or      l
63e5 00        nop     
63e6 b8        cp      b
63e7 00        nop     
63e8 2a0131    ld      hl,(3101h)
63eb 013801    ld      bc,0138h
63ee 45        ld      b,l
63ef 014d01    ld      bc,014dh
63f2 ff        rst     38h
63f3 ff        rst     38h
63f4 cdc264    call    64c2h
63f7 fa0464    jp      m,6404h
63fa dba8      in      a,(0a8h)
63fc 57        ld      d,a
63fd a1        and     c
63fe b0        or      b
63ff cd80f3    call    0f380h
6402 7b        ld      a,e
6403 c9        ret     
6404 cd1165    call    6511h
6407 ca1e65    jp      z,651eh
640a e5        push    hl
640b cde764    call    64e7h
640e e3        ex      (sp),hl
640f c5        push    bc
6410 cdf463    call    63f4h
6413 1821      jr      6436h
6415 d5        push    de
6416 cdc264    call    64c2h
6419 fa2564    jp      m,6425h
641c d1        pop     de
641d dba8      in      a,(0a8h)
641f 57        ld      d,a
6420 a1        and     c
6421 b0        or      b
6422 c385f3    jp      0f385h
6425 cd1165    call    6511h
6428 ca2465    jp      z,6524h
642b e3        ex      (sp),hl
642c e5        push    hl
642d cde764    call    64e7h
6430 d1        pop     de
6431 e3        ex      (sp),hl
6432 c5        push    bc
6433 cd1564    call    6415h
6436 c1        pop     bc
6437 e3        ex      (sp),hl
6438 f5        push    af
6439 78        ld      a,b
643a e63f      and     3fh
643c b1        or      c
643d cd4600    call    0046h
6440 f1        pop     af
6441 e1        pop     hl
6442 c9        ret     
6443 e3        ex      (sp),hl
6444 f5        push    af
6445 d5        push    de
6446 7e        ld      a,(hl)
6447 f5        push    af
6448 fde1      pop     iy
644a 23        inc     hl
644b 5e        ld      e,(hl)
644c 23        inc     hl
644d 56        ld      d,(hl)
644e 23        inc     hl
644f d5        push    de
6450 dde1      pop     ix
6452 d1        pop     de
6453 f1        pop     af
6454 e3        ex      (sp),hl
6455 d9        exx     
6456 08        ex      af,af'
6457 fde5      push    iy
6459 f1        pop     af
645a dde5      push    ix
645c e1        pop     hl
645d cdc264    call    64c2h
6460 fa6c64    jp      m,646ch
6463 dba8      in      a,(0a8h)
6465 f5        push    af
6466 a1        and     c
6467 b0        or      b
6468 d9        exx     
6469 c38cf3    jp      0f38ch
646c cd1165    call    6511h
646f ca2c65    jp      z,652ch
6472 cde764    call    64e7h
6475 f5        push    af
6476 fde1      pop     iy
6478 e5        push    hl
6479 c5        push    bc
647a 4f        ld      c,a
647b 0600      ld      b,00h
647d 7d        ld      a,l
647e a4        and     h
647f b2        or      d
6480 21c5fc    ld      hl,0fcc5h
6483 09        add     hl,bc
6484 77        ld      (hl),a
6485 e5        push    hl
6486 08        ex      af,af'
6487 d9        exx     
6488 cd5564    call    6455h
648b d9        exx     
648c 08        ex      af,af'
648d e1        pop     hl
648e c1        pop     bc
648f d1        pop     de
6490 78        ld      a,b
6491 e63f      and     3fh
6493 b1        or      c
6494 f3        di      
6495 cd4b00    call    004bh
6498 73        ld      (hl),e
6499 08        ex      af,af'
649a d9        exx     
649b c9        ret     
649c cdc264    call    64c2h
649f faa964    jp      m,64a9h
64a2 dba8      in      a,(0a8h)
64a4 a1        and     c
64a5 b0        or      b
64a6 d3a8      out     (0a8h),a
64a8 c9        ret     
64a9 cd1165    call    6511h
64ac ca4165    jp      z,6541h
64af e5        push    hl
64b0 cde764    call    64e7h
64b3 4f        ld      c,a
64b4 0600      ld      b,00h
64b6 7d        ld      a,l
64b7 a4        and     h
64b8 b2        or      d
64b9 21c5fc    ld      hl,0fcc5h
64bc 09        add     hl,bc
64bd 77        ld      (hl),a
64be e1        pop     hl
64bf 79        ld      a,c
64c0 18da      jr      659ch
64c2 f3        di      
64c3 f5        push    af
64c4 7c        ld      a,h
64c5 07        rlca    
64c6 07        rlca    
64c7 e603      and     03h
64c9 5f        ld      e,a
64ca 1c        inc     e
64cb 3ec0      ld      a,0c0h
64cd 07        rlca    
64ce 07        rlca    
64cf 1d        dec     e
64d0 20fb      jr      nz,65cdh
64d2 5f        ld      e,a
64d3 2f        cpl     
64d4 4f        ld      c,a
64d5 f1        pop     af
64d6 f5        push    af
64d7 e603      and     03h
64d9 47        ld      b,a
64da 04        inc     b
64db 3eab      ld      a,0abh
64dd c655      add     a,55h
64df 10fc      djnz    65ddh
64e1 57        ld      d,a
64e2 a3        and     e
64e3 47        ld      b,a
64e4 f1        pop     af
64e5 a7        and     a
64e6 c9        ret     
64e7 f5        push    af
64e8 7a        ld      a,d
64e9 e6c0      and     0c0h
64eb 4f        ld      c,a
64ec f1        pop     af
64ed f5        push    af
64ee 57        ld      d,a
64ef dba8      in      a,(0a8h)
64f1 47        ld      b,a
64f2 e63f      and     3fh
64f4 b1        or      c
64f5 f5        push    af
64f6 7a        ld      a,d
64f7 0f        rrca    
64f8 0f        rrca    
64f9 e603      and     03h
64fb 57        ld      d,a
64fc 14        inc     d
64fd 3eab      ld      a,0abh
64ff c655      add     a,55h
6501 15        dec     d
6502 20fb      jr      nz,65ffh
6504 a3        and     e
6505 57        ld      d,a
6506 7b        ld      a,e
6507 2f        cpl     
6508 67        ld      h,a
6509 f1        pop     af
650a cd5c65    call    655ch
650d f1        pop     af
650e e603      and     03h
6510 c9        ret     
6511 4f        ld      c,a
6512 7b        ld      a,e
6513 fe03      cp      03h
6515 79        ld      a,c
6516 c0        ret     nz
6517 3a41f3    ld      a,(0f341h)
651a a3        and     e
651b b8        cp      b
651c 79        ld      a,c
651d c9        ret     
651e cd4965    call    6549h
6521 5e        ld      e,(hl)
6522 1805      jr      6529h
6524 d1        pop     de
6525 cd4965    call    6549h
6528 73        ld      (hl),e
6529 78        ld      a,b
652a 182b      jr      6557h
652c cd4165    call    6541h
652f e5        push    hl
6530 c5        push    bc
6531 08        ex      af,af'
6532 d9        exx     
6533 cd98f3    call    0f398h
6536 d9        exx     
6537 08        ex      af,af'
6538 c1        pop     bc
6539 cd2965    call    6529h
653c e1        pop     hl
653d 70        ld      (hl),b
653e 08        ex      af,af'
653f d9        exx     
6540 c9        ret     
6541 cd4965    call    6549h
6544 21c5fc    ld      hl,0fcc5h
6547 72        ld      (hl),d
6548 c9        ret     
6549 0f        rrca    
654a 0f        rrca    
654b e603      and     03h
654d 57        ld      d,a
654e 3affff    ld      a,(0ffffh)
6551 2f        cpl     
6552 47        ld      b,a
6553 e6fc      and     0fch
6555 b2        or      d
6556 57        ld      d,a
6557 32ffff    ld      (0ffffh),a
655a 7b        ld      a,e
655b c9        ret     
655c d3a8      out     (0a8h),a
655e 3affff    ld      a,(0ffffh)
6561 2f        cpl     
6562 6f        ld      l,a
6563 a4        and     h
6564 b2        or      d
6565 1808      jr      656fh
6567 d3a8      out     (0a8h),a
6569 7d        ld      a,l
656a 1803      jr      656fh
656c d3a8      out     (0a8h),a
656e 7b        ld      a,e
656f 32ffff    ld      (0ffffh),a
6572 78        ld      a,b
6573 d3a8      out     (0a8h),a
6575 c9        ret     
6576 3a4efe    ld      a,(0fe4eh)
6579 fec9      cp      0c9h
657b 37        scf     
657c c8        ret     z
657d e5        push    hl
657e cd2d40    call    402dh
6581 2148f3    ld      hl,0f348h
6584 be        cp      (hl)
6585 2026      jr      nz,65adh
6587 21b165    ld      hl,65b1h
658a 1189fd    ld      de,0fd89h
658d 1a        ld      a,(de)
658e be        cp      (hl)
658f 13        inc     de
6590 23        inc     hl
6591 2010      jr      nz,65a3h
6593 a7        and     a
6594 20f7      jr      nz,668dh
6596 7e        ld      a,(hl)
6597 23        inc     hl
6598 66        ld      h,(hl)
6599 6f        ld      l,a
659a e3        ex      (sp),hl
659b cdda72    call    72dah
659e 37        scf     
659f 3f        ccf     
65a0 c9        ret     
65a1 23        inc     hl
65a2 7e        ld      a,(hl)
65a3 a7        and     a
65a4 20fb      jr      nz,66a1h
65a6 23        inc     hl
65a7 23        inc     hl
65a8 23        inc     hl
65a9 7e        ld      a,(hl)
65aa a7        and     a
65ab 20dd      jr      nz,668ah
65ad e1        pop     hl
65ae c36d7f    jp      7f6dh
65b1 53        ld      d,e
65b2 59        ld      e,c
65b3 53        ld      d,e
65b4 54        ld      d,h
65b5 45        ld      b,l
65b6 4d        ld      c,l
65b7 00        nop     
65b8 c46546    call    nz,4665h
65bb 4f        ld      c,a
65bc 52        ld      d,d
65bd 4d        ld      c,l
65be 41        ld      b,c
65bf 54        ld      d,h
65c0 00        nop     
65c1 dc6500    call    c,0065h
65c4 c0        ret     nz
65c5 3a46f3    ld      a,(0f346h)
65c8 a7        and     a
65c9 ca1573    jp      z,7315h
65cc dd211c6c  ld      ix,6c1ch
65d0 cd1e73    call    731eh
65d3 cdd200    call    00d2h
65d6 cdcc00    call    00cch
65d9 c3115a    jp      5a11h
65dc e5        push    hl
65dd ccb160    call    z,60b1h
65e0 e1        pop     hl
65e1 a7        and     a
65e2 c9        ret     
65e3 7a        ld      a,d
65e4 3d        dec     a
65e5 f0        ret     p
65e6 3a47f2    ld      a,(0f247h)
65e9 c9        ret     
65ea e5        push    hl
65eb d5        push    de
65ec c5        push    bc
65ed cde365    call    65e3h
65f0 4f        ld      c,a
65f1 2a60f8    ld      hl,(0f860h)
65f4 3a5ff8    ld      a,(0f85fh)
65f7 f5        push    af
65f8 5e        ld      e,(hl)
65f9 23        inc     hl
65fa 56        ld      d,(hl)
65fb 23        inc     hl
65fc e5        push    hl
65fd eb        ex      de,hl
65fe 7e        ld      a,(hl)
65ff a7        and     a
6600 282c      jr      z,662eh
6602 23        inc     hl
6603 23        inc     hl
6604 23        inc     hl
6605 23        inc     hl
6606 7e        ld      a,(hl)
6607 fe09      cp      09h
6609 3023      jr      nc,662eh
660b 2b        dec     hl
660c 2b        dec     hl
660d 56        ld      d,(hl)
660e 2b        dec     hl
660f 5e        ld      e,(hl)
6610 1a        ld      a,(de)
6611 cde465    call    65e4h
6614 b9        cp      c
6615 2017      jr      nz,662eh
6617 13        inc     de
6618 eb        ex      de,hl
6619 1166f8    ld      de,0f866h
661c 060b      ld      b,0bh
661e 1a        ld      a,(de)
661f fe3f      cp      3fh
6621 2803      jr      z,6626h
6623 be        cp      (hl)
6624 2008      jr      nz,662eh
6626 13        inc     de
6627 23        inc     hl
6628 10f4      djnz    671eh
662a e1        pop     hl
662b e1        pop     hl
662c 1872      jr      66a0h
662e e1        pop     hl
662f f1        pop     af
6630 3d        dec     a
6631 f2f765    jp      p,65f7h
6634 186a      jr      66a0h
6636 e5        push    hl
6637 d5        push    de
6638 c5        push    bc
6639 7a        ld      a,d
663a 3268f5    ld      (0f568h),a
663d cd5766    call    6657h
6640 cd4566    call    6645h
6643 185b      jr      66a0h
6645 21b2f5    ld      hl,0f5b2h
6648 223df2    ld      (0f23dh),hl
664b 1168f5    ld      de,0f568h
664e af        xor     a
664f 3274f5    ld      (0f574h),a
6652 cdb84f    call    4fb8h
6655 3c        inc     a
6656 c9        ret     
6657 1169f5    ld      de,0f569h
665a 2166f8    ld      hl,0f866h
665d 010b00    ld      bc,000bh
6660 edb0      ldir    
6662 c9        ret     
6663 fb        ei      
6664 e5        push    hl
6665 d5        push    de
6666 c5        push    bc
6667 f5        push    af
6668 3a48f3    ld      a,(0f348h)
666b 87        add     a,a
666c 211000    ld      hl,0010h
666f 3002      jr      nc,6673h
6671 2e18      ld      l,18h
6673 39        add     hl,sp
6674 dde5      push    ix
6676 c1        pop     bc
6677 71        ld      (hl),c
6678 23        inc     hl
6679 70        ld      (hl),b
667a 210a00    ld      hl,000ah
667d 39        add     hl,sp
667e eb        ex      de,hl
667f 180c      jr      668dh
6681 fde5      push    iy
6683 c1        pop     bc
6684 4e        ld      c,(hl)
6685 1a        ld      a,(de)
6686 77        ld      (hl),a
6687 79        ld      a,c
6688 12        ld      (de),a
6689 23        inc     hl
668a 13        inc     de
668b 10f7      djnz    6784h
668d 3a48f3    ld      a,(0f348h)
6690 87        add     a,a
6691 211200    ld      hl,0012h
6694 3002      jr      nc,6698h
6696 2e1a      ld      l,1ah
6698 39        add     hl,sp
6699 7b        ld      a,e
669a 95        sub     l
669b 7a        ld      a,d
669c 9c        sbc     a,h
669d 38e2      jr      c,6781h
669f f1        pop     af
66a0 c1        pop     bc
66a1 d1        pop     de
66a2 e1        pop     hl
66a3 c9        ret     
66a4 dd218bf3  ld      ix,0f38bh
66a8 fd210002  ld      iy,0200h
66ac cd6366    call    6663h
66af e1        pop     hl
66b0 7e        ld      a,(hl)
66b1 a7        and     a
66b2 c9        ret     
66b3 fb        ei      
66b4 010001    ld      bc,0100h
66b7 ed433df3  ld      (0f33dh),bc
66bb cdda72    call    72dah
66be 7b        ld      a,e
66bf c8        ret     z
66c0 f5        push    af
66c1 e5        push    hl
66c2 3a48f3    ld      a,(0f348h)
66c5 87        add     a,a
66c6 210c00    ld      hl,000ch
66c9 3002      jr      nc,66cdh
66cb 2e14      ld      l,14h
66cd 39        add     hl,sp
66ce 7e        ld      a,(hl)
66cf fe04      cp      04h
66d1 c21873    jp      nz,7318h
66d4 23        inc     hl
66d5 7e        ld      a,(hl)
66d6 fe09      cp      09h
66d8 d21873    jp      nc,7318h
66db e1        pop     hl
66dc cdd072    call    72d0h
66df ff        rst     38h
66e0 cdd072    call    72d0h
66e3 92        sub     d
66e4 cdd072    call    72d0h
66e7 ef        rst     28h
66e8 dd215647  ld      ix,4756h
66ec cd1e73    call    731eh
66ef 1b        dec     de
66f0 14        inc     d
66f1 15        dec     d
66f2 c21573    jp      nz,7315h
66f5 13        inc     de
66f6 ed533df3  ld      (0f33dh),de
66fa f1        pop     af
66fb c9        ret     
66fc fb        ei      
66fd d0        ret     nc
66fe dd218bf3  ld      ix,0f38bh
6702 fd210004  ld      iy,0400h
6706 cd6366    call    6663h
6709 cda96f    call    6fa9h
670c cdea65    call    65eah
670f ca0973    jp      z,7309h
6712 2264f8    ld      (0f864h),hl
6715 7b        ld      a,e
6716 fe04      cp      04h
6718 2807      jr      z,6721h
671a 010100    ld      bc,0001h
671d ed433df3  ld      (0f33dh),bc
6721 f1        pop     af
6722 f5        push    af
6723 e5        push    hl
6724 d5        push    de
6725 2145f3    ld      hl,0f345h
6728 be        cp      (hl)
6729 d20c73    jp      nc,730ch
672c 012500    ld      bc,0025h
672f 5f        ld      e,a
6730 50        ld      d,b
6731 2a53f3    ld      hl,(0f353h)
6734 cd1c49    call    491ch
6737 af        xor     a
6738 210c00    ld      hl,000ch
673b 09        add     hl,bc
673c 77        ld      (hl),a
673d d1        pop     de
673e e1        pop     hl
673f 23        inc     hl
6740 71        ld      (hl),c
6741 23        inc     hl
6742 70        ld      (hl),b
6743 23        inc     hl
6744 77        ld      (hl),a
6745 23        inc     hl
6746 72        ld      (hl),d
6747 23        inc     hl
6748 23        inc     hl
6749 77        ld      (hl),a
674a cd3666    call    6636h
674d c5        push    bc
674e d5        push    de
674f 7a        ld      a,d
6750 02        ld      (bc),a
6751 59        ld      e,c
6752 50        ld      d,b
6753 13        inc     de
6754 cd5a66    call    665ah
6757 d1        pop     de
6758 c1        pop     bc
6759 7b        ld      a,e
675a 201c      jr      nz,6778h
675c e686      and     86h
675e ca1273    jp      z,7312h
6761 d5        push    de
6762 c5        push    bc
6763 59        ld      e,c
6764 50        ld      d,b
6765 cd1d46    call    461dh
6768 a7        and     a
6769 c2ab71    jp      nz,71abh
676c e1        pop     hl
676d cdfe67    call    67feh
6770 d1        pop     de
6771 2a64f8    ld      hl,(0f864h)
6774 73        ld      (hl),e
6775 f1        pop     af
6776 e1        pop     hl
6777 c9        ret     
6778 fe08      cp      08h
677a 2845      jr      z,67c1h
677c fe02      cp      02h
677e 28e1      jr      z,6861h
6780 fe80      cp      80h
6782 28dd      jr      z,6861h
6784 d5        push    de
6785 c5        push    bc
6786 59        ld      e,c
6787 50        ld      d,b
6788 cd6244    call    4462h
678b e1        pop     hl
678c cdfe67    call    67feh
678f d1        pop     de
6790 2a64f8    ld      hl,(0f864h)
6793 73        ld      (hl),e
6794 7b        ld      a,e
6795 fe04      cp      04h
6797 28dc      jr      z,6875h
6799 e5        push    hl
679a 21aefc    ld      hl,0fcaeh
679d af        xor     a
679e be        cp      (hl)
679f 77        ld      (hl),a
67a0 e1        pop     hl
67a1 20d2      jr      nz,6875h
67a3 010600    ld      bc,0006h
67a6 09        add     hl,bc
67a7 e5        push    hl
67a8 36ff      ld      (hl),0ffh
67aa 2a64f8    ld      hl,(0f864h)
67ad cd2a68    call    682ah
67b0 e1        pop     hl
67b1 2b        dec     hl
67b2 2b        dec     hl
67b3 2b        dec     hl
67b4 77        ld      (hl),a
67b5 feff      cp      0ffh
67b7 20bc      jr      nz,6875h
67b9 23        inc     hl
67ba 23        inc     hl
67bb 23        inc     hl
67bc 23        inc     hl
67bd 3680      ld      (hl),80h
67bf 18b4      jr      6875h
67c1 c5        push    bc
67c2 59        ld      e,c
67c3 50        ld      d,b
67c4 cd6244    call    4462h
67c7 e1        pop     hl
67c8 e5        push    hl
67c9 cdfe67    call    67feh
67cc 2a64f8    ld      hl,(0f864h)
67cf 3601      ld      (hl),01h
67d1 010600    ld      bc,0006h
67d4 09        add     hl,bc
67d5 36ff      ld      (hl),0ffh
67d7 2a64f8    ld      hl,(0f864h)
67da e5        push    hl
67db cd2a68    call    682ah
67de e1        pop     hl
67df 30f9      jr      nc,68dah
67e1 3602      ld      (hl),02h
67e3 e1        pop     hl
67e4 012100    ld      bc,0021h
67e7 09        add     hl,bc
67e8 0e04      ld      c,04h
67ea e5        push    hl
67eb 37        scf     
67ec 7e        ld      a,(hl)
67ed 98        sbc     a,b
67ee 77        ld      (hl),a
67ef 23        inc     hl
67f0 0d        dec     c
67f1 20f9      jr      nz,68ech
67f3 e1        pop     hl
67f4 0c        inc     c
67f5 3002      jr      nc,67f9h
67f7 0e04      ld      c,04h
67f9 cd1368    call    6813h
67fc 18c1      jr      68bfh
67fe 010c00    ld      bc,000ch
6801 09        add     hl,bc
6802 70        ld      (hl),b
6803 23        inc     hl
6804 70        ld      (hl),b
6805 23        inc     hl
6806 ed4b3df3  ld      bc,(0f33dh)
680a 71        ld      (hl),c
680b 23        inc     hl
680c 70        ld      (hl),b
680d 011100    ld      bc,0011h
6810 09        add     hl,bc
6811 0e05      ld      c,05h
6813 70        ld      (hl),b
6814 23        inc     hl
6815 0d        dec     c
6816 20fb      jr      nz,6913h
6818 c9        ret     
6819 dd218bf3  ld      ix,0f38bh
681d fd210006  ld      iy,0600h
6821 cd6366    call    6663h
6824 cd2a68    call    682ah
6827 c3a066    jp      66a0h
682a e5        push    hl
682b 7e        ld      a,(hl)
682c fe01      cp      01h
682e c29971    jp      nz,7199h
6831 5d        ld      e,l
6832 54        ld      d,h
6833 23        inc     hl
6834 23        inc     hl
6835 23        inc     hl
6836 7e        ld      a,(hl)
6837 a7        and     a
6838 202c      jr      nz,6866h
683a 23        inc     hl
683b 23        inc     hl
683c 23        inc     hl
683d 34        inc     (hl)
683e 7e        ld      a,(hl)
683f 23        inc     hl
6840 23        inc     hl
6841 23        inc     hl
6842 201d      jr      nz,6861h
6844 e5        push    hl
6845 223df2    ld      (0f23dh),hl
6848 eb        ex      de,hl
6849 23        inc     hl
684a 5e        ld      e,(hl)
684b 23        inc     hl
684c 56        ld      d,(hl)
684d 210001    ld      hl,0100h
6850 cdb247    call    47b2h
6853 5d        ld      e,l
6854 54        ld      d,h
6855 25        dec     h
6856 7d        ld      a,l
6857 b4        or      h
6858 e1        pop     hl
6859 2806      jr      z,6861h
685b e5        push    hl
685c 19        add     hl,de
685d 361a      ld      (hl),1ah
685f e1        pop     hl
6860 af        xor     a
6861 4f        ld      c,a
6862 0600      ld      b,00h
6864 09        add     hl,bc
6865 7e        ld      a,(hl)
6866 47        ld      b,a
6867 d61a      sub     1ah
6869 d601      sub     01h
686b 78        ld      a,b
686c e1        pop     hl
686d 23        inc     hl
686e 23        inc     hl
686f 23        inc     hl
6870 3600      ld      (hl),00h
6872 d0        ret     nc
6873 77        ld      (hl),a
6874 c9        ret     
6875 fb        ei      
6876 e5        push    hl
6877 3a48f3    ld      a,(0f348h)
687a 87        add     a,a
687b 210800    ld      hl,0008h
687e 3002      jr      nc,6882h
6880 2e10      ld      l,10h
6882 39        add     hl,sp
6883 3641      ld      (hl),41h
6885 23        inc     hl
6886 366e      ld      (hl),6eh
6888 e1        pop     hl
6889 23        inc     hl
688a 23        inc     hl
688b 23        inc     hl
688c 71        ld      (hl),c
688d c9        ret     
688e dd218bf3  ld      ix,0f38bh
6892 fd210008  ld      iy,0800h
6896 cd6366    call    6663h
6899 7e        ld      a,(hl)
689a fe02      cp      02h
689c c29971    jp      nz,7199h
689f f1        pop     af
68a0 f5        push    af
68a1 cda768    call    68a7h
68a4 c39f66    jp      669fh
68a7 e5        push    hl
68a8 010600    ld      bc,0006h
68ab 09        add     hl,bc
68ac 4e        ld      c,(hl)
68ad 34        inc     (hl)
68ae 23        inc     hl
68af 23        inc     hl
68b0 23        inc     hl
68b1 09        add     hl,bc
68b2 77        ld      (hl),a
68b3 e1        pop     hl
68b4 c0        ret     nz
68b5 e5        push    hl
68b6 23        inc     hl
68b7 5e        ld      e,(hl)
68b8 23        inc     hl
68b9 56        ld      d,(hl)
68ba 010400    ld      bc,0004h
68bd 09        add     hl,bc
68be 7e        ld      a,(hl)
68bf 23        inc     hl
68c0 23        inc     hl
68c1 23        inc     hl
68c2 223df2    ld      (0f23dh),hl
68c5 a7        and     a
68c6 6f        ld      l,a
68c7 60        ld      h,b
68c8 2001      jr      nz,68cbh
68ca 24        inc     h
68cb cd8f71    call    718fh
68ce e1        pop     hl
68cf c9        ret     
68d0 dd218bf3  ld      ix,0f38bh
68d4 fd210004  ld      iy,0400h
68d8 cd6366    call    6663h
68db e1        pop     hl
68dc 7e        ld      a,(hl)
68dd d602      sub     02h
68df 2013      jr      nz,68f4h
68e1 e5        push    hl
68e2 21aefc    ld      hl,0fcaeh
68e5 be        cp      (hl)
68e6 77        ld      (hl),a
68e7 e1        pop     hl
68e8 200a      jr      nz,68f4h
68ea 3604      ld      (hl),04h
68ec 3e1a      ld      a,1ah
68ee cda768    call    68a7h
68f1 c4b568    call    nz,68b5h
68f4 e5        push    hl
68f5 23        inc     hl
68f6 5e        ld      e,(hl)
68f7 23        inc     hl
68f8 56        ld      d,(hl)
68f9 cd6f45    call    456fh
68fc e1        pop     hl
68fd e5        push    hl
68fe 110700    ld      de,0007h
6901 19        add     hl,de
6902 72        ld      (hl),d
6903 6a        ld      l,d
6904 62        ld      h,d
6905 2264f8    ld      (0f864h),hl
6908 e1        pop     hl
6909 34        inc     (hl)
690a 35        dec     (hl)
690b 72        ld      (hl),d
690c e1        pop     hl
690d c9        ret     
690e cd8073    call    7380h
6911 e5        push    hl
6912 dd21f754  ld      ix,54f7h
6916 cd1e73    call    731eh
6919 3eff      ld      a,0ffh
691b cdc769    call    69c7h
691e 2a76f6    ld      hl,(0f676h)
6921 223df2    ld      (0f23dh),hl
6924 eb        ex      de,hl
6925 2ac2f6    ld      hl,(0f6c2h)
6928 a7        and     a
6929 ed52      sbc     hl,de
692b cd8b71    call    718bh
692e 327cf8    ld      (0f87ch),a
6931 e1        pop     hl
6932 dd21246b  ld      ix,6b24h
6936 c31e73    jp      731eh
6939 dd219a73  ld      ix,739ah
693d fd210002  ld      iy,0200h
6941 cd6366    call    6663h
6944 f1        pop     af
6945 ca9971    jp      z,7199h
6948 dd211c6c  ld      ix,6c1ch
694c cd1e73    call    731eh
694f 2a53f3    ld      hl,(0f353h)
6952 e5        push    hl
6953 cdfe67    call    67feh
6956 e1        pop     hl
6957 e5        push    hl
6958 011300    ld      bc,0013h
695b 09        add     hl,bc
695c 7e        ld      a,(hl)
695d a7        and     a
695e c2fd72    jp      nz,72fdh
6961 2b        dec     hl
6962 b6        or      (hl)
6963 c2fd72    jp      nz,72fdh
6966 2b        dec     hl
6967 56        ld      d,(hl)
6968 2b        dec     hl
6969 5e        ld      e,(hl)
696a 2a76f6    ld      hl,(0f676h)
696d 19        add     hl,de
696e dafd72    jp      c,72fdh
6971 019300    ld      bc,0093h
6974 09        add     hl,bc
6975 dafd72    jp      c,72fdh
6978 ed72      sbc     hl,sp
697a d2fd72    jp      nc,72fdh
697d eb        ex      de,hl
697e e3        ex      (sp),hl
697f eb        ex      de,hl
6980 cdd069    call    69d0h
6983 2a76f6    ld      hl,(0f676h)
6986 223df2    ld      (0f23dh),hl
6989 e1        pop     hl
698a 2b        dec     hl
698b cdb247    call    47b2h
698e ed5b76f6  ld      de,(0f676h)
6992 19        add     hl,de
6993 22c2f6    ld      (0f6c2h),hl
6996 dd215342  ld      ix,4253h
699a cd1e73    call    731eh
699d 3a66f8    ld      a,(0f866h)
69a0 a7        and     a
69a1 c0        ret     nz
69a2 327cf8    ld      (0f87ch),a
69a5 21b969    ld      hl,69b9h
69a8 1168f5    ld      de,0f568h
69ab 010500    ld      bc,0005h
69ae d5        push    de
69af edb0      ldir    
69b1 e1        pop     hl
69b2 dd210146  ld      ix,4601h
69b6 c31e73    jp      731eh
69b9 3a9200    ld      a,(0092h)
69bc 00        nop     
69bd 00        nop     
69be e5        push    hl
69bf 7d        ld      a,l
69c0 cdcb69    call    69cbh
69c3 e1        pop     hl
69c4 7c        ld      a,h
69c5 1804      jr      69cbh
69c7 ed5b53f3  ld      de,(0f353h)
69cb 01be47    ld      bc,47beh
69ce 1803      jr      69d3h
69d0 01b247    ld      bc,47b2h
69d3 f5        push    af
69d4 210100    ld      hl,0001h
69d7 39        add     hl,sp
69d8 223df2    ld      (0f23dh),hl
69db d5        push    de
69dc cde269    call    69e2h
69df d1        pop     de
69e0 f1        pop     af
69e1 c9        ret     
69e2 210100    ld      hl,0001h
69e5 c5        push    bc
69e6 c9        ret     
69e7 d5        push    de
69e8 cd6a6b    call    6b6ah
69eb ed53bffc  ld      (0fcbfh),de
69ef d5        push    de
69f0 cd6a6b    call    6b6ah
69f3 ed537df8  ld      (0f87dh),de
69f7 e3        ex      (sp),hl
69f8 eb        ex      de,hl
69f9 e7        rst     20h
69fa da1573    jp      c,7315h
69fd eb        ex      de,hl
69fe e3        ex      (sp),hl
69ff cdda72    call    72dah
6a02 37        scf     
6a03 2816      jr      z,6a1bh
6a05 cdd072    call    72d0h
6a08 2c        inc     l
6a09 fe53      cp      53h
6a0b 2006      jr      nz,6a13h
6a0d cddb72    call    72dbh
6a10 a7        and     a
6a11 1808      jr      6a1bh
6a13 cd6e6b    call    6b6eh
6a16 ed53bffc  ld      (0fcbfh),de
6a1a 37        scf     
6a1b c1        pop     bc
6a1c 3005      jr      nc,6a23h
6a1e 04        inc     b
6a1f 05        dec     b
6a20 f21573    jp      p,7315h
6a23 d1        pop     de
6a24 e5        push    hl
6a25 c5        push    bc
6a26 f5        push    af
6a27 af        xor     a
6a28 1e02      ld      e,02h
6a2a dd21fa6a  ld      ix,6afah
6a2e cd1e73    call    731eh
6a31 3efe      ld      a,0feh
6a33 cdc769    call    69c7h
6a36 f1        pop     af
6a37 e1        pop     hl
6a38 e5        push    hl
6a39 f5        push    af
6a3a cdbe69    call    69beh
6a3d 2a7df8    ld      hl,(0f87dh)
6a40 cdbe69    call    69beh
6a43 2abffc    ld      hl,(0fcbfh)
6a46 cdbe69    call    69beh
6a49 f1        pop     af
6a4a c1        pop     bc
6a4b f5        push    af
6a4c ed433df2  ld      (0f23dh),bc
6a50 2a7df8    ld      hl,(0f87dh)
6a53 a7        and     a
6a54 ed42      sbc     hl,bc
6a56 23        inc     hl
6a57 f1        pop     af
6a58 3013      jr      nc,6a6dh
6a5a cd8b71    call    718bh
6a5d 3eff      ld      a,0ffh
6a5f 32aefc    ld      (0fcaeh),a
6a62 af        xor     a
6a63 dd21246b  ld      ix,6b24h
6a67 cd1e73    call    731eh
6a6a c3f86e    jp      6ef8h
6a6d cd6571    call    7165h
6a70 e5        push    hl
6a71 ed5bbffc  ld      de,(0fcbfh)
6a75 e7        rst     20h
6a76 f5        push    af
6a77 4d        ld      c,l
6a78 44        ld      b,h
6a79 2a7df8    ld      hl,(0f87dh)
6a7c e5        push    hl
6a7d 09        add     hl,bc
6a7e 227df8    ld      (0f87dh),hl
6a81 e1        pop     hl
6a82 ed5b3df2  ld      de,(0f23dh)
6a86 cd5900    call    0059h
6a89 f1        pop     af
6a8a 3012      jr      nc,6a9eh
6a8c e1        pop     hl
6a8d e5        push    hl
6a8e cd8b71    call    718bh
6a91 2abffc    ld      hl,(0fcbfh)
6a94 d1        pop     de
6a95 a7        and     a
6a96 ed52      sbc     hl,de
6a98 22bffc    ld      (0fcbfh),hl
6a9b eb        ex      de,hl
6a9c 18d2      jr      6b70h
6a9e e1        pop     hl
6a9f 2abffc    ld      hl,(0fcbfh)
6aa2 cd8b71    call    718bh
6aa5 18b6      jr      6b5dh
6aa7 d5        push    de
6aa8 af        xor     a
6aa9 32befc    ld      (0fcbeh),a
6aac 4f        ld      c,a
6aad 47        ld      b,a
6aae cdda72    call    72dah
6ab1 281d      jr      z,6ad0h
6ab3 cdd072    call    72d0h
6ab6 2c        inc     l
6ab7 fe52      cp      52h
6ab9 2804      jr      z,6abfh
6abb fe53      cp      53h
6abd 200c      jr      nz,6acbh
6abf 32befc    ld      (0fcbeh),a
6ac2 cddb72    call    72dbh
6ac5 2809      jr      z,6ad0h
6ac7 cdd072    call    72d0h
6aca 2c        inc     l
6acb cd6e6b    call    6b6eh
6ace 42        ld      b,d
6acf 4b        ld      c,e
6ad0 d1        pop     de
6ad1 e5        push    hl
6ad2 c5        push    bc
6ad3 3eff      ld      a,0ffh
6ad5 32aefc    ld      (0fcaeh),a
6ad8 af        xor     a
6ad9 1e01      ld      e,01h
6adb dd21fa6a  ld      ix,6afah
6adf cd1e73    call    731eh
6ae2 ed5b53f3  ld      de,(0f353h)
6ae6 cdd069    call    69d0h
6ae9 fefe      cp      0feh
6aeb c29971    jp      nz,7199h
6aee c1        pop     bc
6aef cd5c6b    call    6b5ch
6af2 e5        push    hl
6af3 cd5c6b    call    6b5ch
6af6 e5        push    hl
6af7 cd5c6b    call    6b5ch
6afa 22bffc    ld      (0fcbfh),hl
6afd e1        pop     hl
6afe c1        pop     bc
6aff a7        and     a
6b00 ed42      sbc     hl,bc
6b02 23        inc     hl
6b03 ed433df2  ld      (0f23dh),bc
6b07 3abefc    ld      a,(0fcbeh)
6b0a fe53      cp      53h
6b0c 280c      jr      z,6b1ah
6b0e cdb247    call    47b2h
6b11 dd21ff4a  ld      ix,4affh
6b15 cd1e73    call    731eh
6b18 e1        pop     hl
6b19 c9        ret     
6b1a cd6571    call    7165h
6b1d e5        push    hl
6b1e ed5bbffc  ld      de,(0fcbfh)
6b22 e7        rst     20h
6b23 f5        push    af
6b24 ed5b53f3  ld      de,(0f353h)
6b28 cdb247    call    47b2h
6b2b f1        pop     af
6b2c c1        pop     bc
6b2d c5        push    bc
6b2e f5        push    af
6b2f 2a7df8    ld      hl,(0f87dh)
6b32 e5        push    hl
6b33 09        add     hl,bc
6b34 227df8    ld      (0f87dh),hl
6b37 d1        pop     de
6b38 2a3df2    ld      hl,(0f23dh)
6b3b f1        pop     af
6b3c 3010      jr      nc,6b4eh
6b3e cd5c00    call    005ch
6b41 2abffc    ld      hl,(0fcbfh)
6b44 d1        pop     de
6b45 a7        and     a
6b46 ed52      sbc     hl,de
6b48 22bffc    ld      (0fcbfh),hl
6b4b eb        ex      de,hl
6b4c 18cf      jr      6c1dh
6b4e c1        pop     bc
6b4f ed4bbffc  ld      bc,(0fcbfh)
6b53 cd5c00    call    005ch
6b56 af        xor     a
6b57 32befc    ld      (0fcbeh),a
6b5a 18b5      jr      6c11h
6b5c c5        push    bc
6b5d cdd069    call    69d0h
6b60 f5        push    af
6b61 cdd069    call    69d0h
6b64 67        ld      h,a
6b65 f1        pop     af
6b66 6f        ld      l,a
6b67 c1        pop     bc
6b68 09        add     hl,bc
6b69 c9        ret     
6b6a cdd072    call    72d0h
6b6d 2c        inc     l
6b6e dd210b6f  ld      ix,6f0bh
6b72 c31e73    jp      731eh
6b75 cd8073    call    7380h
6b78 cddb72    call    72dbh
6b7b cdd072    call    72d0h
6b7e 28cd      jr      z,6c4dh
6b80 c5        push    bc
6b81 6b        ld      l,e
6b82 cdd072    call    72d0h
6b85 29        add     hl,hl
6b86 e5        push    hl
6b87 21d63f    ld      hl,3fd6h
6b8a 22f8f7    ld      (0f7f8h),hl
6b8d e1        pop     hl
6b8e 3e03      ld      a,03h
6b90 3263f6    ld      (0f663h),a
6b93 a7        and     a
6b94 180b      jr      6ba1h
6b96 cd8073    call    7380h
6b99 cdc56b    call    6bc5h
6b9c cdda72    call    72dah
6b9f c0        ret     nz
6ba0 37        scf     
6ba1 f5        push    af
6ba2 e5        push    hl
6ba3 d5        push    de
6ba4 59        ld      e,c
6ba5 cd5d50    call    505dh
6ba8 3c        inc     a
6ba9 ca9c71    jp      z,719ch
6bac d1        pop     de
6bad e1        pop     hl
6bae f1        pop     af
6baf e5        push    hl
6bb0 3eff      ld      a,0ffh
6bb2 3246f2    ld      (0f246h),a
6bb5 dd7e00    ld      a,(ix+00h)
6bb8 0601      ld      b,01h
6bba dd4e01    ld      c,(ix+01h)
6bbd 2a51f3    ld      hl,(0f351h)
6bc0 cd4401    call    0144h
6bc3 e1        pop     hl
6bc4 c9        ret     
6bc5 dd211c52  ld      ix,521ch
6bc9 cd1e73    call    731eh
6bcc d5        push    de
6bcd cdd072    call    72d0h
6bd0 2c        inc     l
6bd1 dd212f54  ld      ix,542fh
6bd5 cd1e73    call    731eh
6bd8 c1        pop     bc
6bd9 c9        ret     
6bda dd218bf3  ld      ix,0f38bh
6bde fd210004  ld      iy,0400h
6be2 cd6366    call    6663h
6be5 7e        ld      a,(hl)
6be6 fe04      cp      04h
6be8 c29971    jp      nz,7199h
6beb 23        inc     hl
6bec 5e        ld      e,(hl)
6bed 23        inc     hl
6bee 56        ld      d,(hl)
6bef 010700    ld      bc,0007h
6bf2 09        add     hl,bc
6bf3 e3        ex      (sp),hl
6bf4 cdda72    call    72dah
6bf7 2830      jr      z,6c29h
6bf9 d5        push    de
6bfa cdd072    call    72d0h
6bfd 2c        inc     l
6bfe dd21644c  ld      ix,4c64h
6c02 cd1e73    call    731eh
6c05 e5        push    hl
6c06 cdfb6d    call    6dfbh
6c09 79        ld      a,c
6c0a b0        or      b
6c0b b5        or      l
6c0c b4        or      h
6c0d ca1573    jp      z,7315h
6c10 79        ld      a,c
6c11 b0        or      b
6c12 0b        dec     bc
6c13 2001      jr      nz,6c16h
6c15 2b        dec     hl
6c16 eb        ex      de,hl
6c17 e1        pop     hl
6c18 e3        ex      (sp),hl
6c19 e5        push    hl
6c1a d5        push    de
6c1b 112100    ld      de,0021h
6c1e 19        add     hl,de
6c1f d1        pop     de
6c20 71        ld      (hl),c
6c21 23        inc     hl
6c22 70        ld      (hl),b
6c23 23        inc     hl
6c24 73        ld      (hl),e
6c25 23        inc     hl
6c26 72        ld      (hl),d
6c27 d1        pop     de
6c28 e1        pop     hl
6c29 e3        ex      (sp),hl
6c2a 223df2    ld      (0f23dh),hl
6c2d e1        pop     hl
6c2e f1        pop     af
6c2f e5        push    hl
6c30 a7        and     a
6c31 210373    ld      hl,7303h
6c34 01b247    ld      bc,47b2h
6c37 2806      jr      z,6c3fh
6c39 21a871    ld      hl,71a8h
6c3c 01be47    ld      bc,47beh
6c3f e5        push    hl
6c40 cde269    call    69e2h
6c43 a7        and     a
6c44 c0        ret     nz
6c45 e1        pop     hl
6c46 c3f86e    jp      6ef8h
6c49 cd8073    call    7380h
6c4c fe23      cp      23h
6c4e ccdb72    call    z,72dbh
6c51 dd211c52  ld      ix,521ch
6c55 cd1e73    call    731eh
6c58 ca1873    jp      z,7318h
6c5b e5        push    hl
6c5c dd216d6a  ld      ix,6a6dh
6c60 cd1e73    call    731eh
6c63 5d        ld      e,l
6c64 54        ld      d,h
6c65 ca0073    jp      z,7300h
6c68 da1573    jp      c,7315h
6c6b 7e        ld      a,(hl)
6c6c fe04      cp      04h
6c6e c29971    jp      nz,7199h
6c71 23        inc     hl
6c72 7e        ld      a,(hl)
6c73 23        inc     hl
6c74 66        ld      h,(hl)
6c75 6f        ld      l,a
6c76 010e00    ld      bc,000eh
6c79 09        add     hl,bc
6c7a 4e        ld      c,(hl)
6c7b 23        inc     hl
6c7c 46        ld      b,(hl)
6c7d ed4368f5  ld      (0f568h),bc
6c81 210000    ld      hl,0000h
6c84 226af5    ld      (0f56ah),hl
6c87 010900    ld      bc,0009h
6c8a e1        pop     hl
6c8b eb        ex      de,hl
6c8c 09        add     hl,bc
6c8d eb        ex      de,hl
6c8e 7e        ld      a,(hl)
6c8f fe2c      cp      2ch
6c91 c0        ret     nz
6c92 d5        push    de
6c93 dd211b52  ld      ix,521bh
6c97 cd1e73    call    731eh
6c9a f5        push    af
6c9b cdd072    call    72d0h
6c9e 41        ld      b,c
6c9f cdd072    call    72d0h
6ca2 53        ld      d,e
6ca3 dd21a45e  ld      ix,5ea4h
6ca7 cd1e73    call    731eh
6caa dd219755  ld      ix,5597h
6cae cd1e73    call    731eh
6cb1 c2fa72    jp      nz,72fah
6cb4 f1        pop     af
6cb5 e3        ex      (sp),hl
6cb6 d5        push    de
6cb7 e5        push    hl
6cb8 2a6af5    ld      hl,(0f56ah)
6cbb 4f        ld      c,a
6cbc 0600      ld      b,00h
6cbe 09        add     hl,bc
6cbf 226af5    ld      (0f56ah),hl
6cc2 eb        ex      de,hl
6cc3 2a68f5    ld      hl,(0f568h)
6cc6 e7        rst     20h
6cc7 da0673    jp      c,7306h
6cca d1        pop     de
6ccb e1        pop     hl
6ccc 71        ld      (hl),c
6ccd 23        inc     hl
6cce 73        ld      (hl),e
6ccf 23        inc     hl
6cd0 72        ld      (hl),d
6cd1 0600      ld      b,00h
6cd3 e1        pop     hl
6cd4 18b5      jr      6d8bh
6cd6 f637      or      37h
6cd8 cd8073    call    7380h
6cdb f5        push    af
6cdc dd21a45e  ld      ix,5ea4h
6ce0 cd1e73    call    731eh
6ce3 dd219755  ld      ix,5597h
6ce7 cd1e73    call    731eh
6cea c2fa72    jp      nz,72fah
6ced d5        push    de
6cee dd215f4c  ld      ix,4c5fh
6cf2 cd1e73    call    731eh
6cf5 c1        pop     bc
6cf6 e3        ex      (sp),hl
6cf7 e5        push    hl
6cf8 c5        push    bc
6cf9 dd21d067  ld      ix,67d0h
6cfd cd1e73    call    731eh
6d00 46        ld      b,(hl)
6d01 e3        ex      (sp),hl
6d02 7e        ld      a,(hl)
6d03 4f        ld      c,a
6d04 c5        push    bc
6d05 e5        push    hl
6d06 f5        push    af
6d07 23        inc     hl
6d08 5e        ld      e,(hl)
6d09 23        inc     hl
6d0a 56        ld      d,(hl)
6d0b b7        or      a
6d0c 285c      jr      z,6d6ah
6d0e 2a62f8    ld      hl,(0f862h)
6d11 2b        dec     hl
6d12 e7        rst     20h
6d13 3833      jr      c,6d48h
6d15 2ac2f6    ld      hl,(0f6c2h)
6d18 e7        rst     20h
6d19 382d      jr      c,6d48h
6d1b 59        ld      e,c
6d1c 1600      ld      d,00h
6d1e 2a74f6    ld      hl,(0f674h)
6d21 19        add     hl,de
6d22 eb        ex      de,hl
6d23 2a9bf6    ld      hl,(0f69bh)
6d26 e7        rst     20h
6d27 3854      jr      c,6d7dh
6d29 f1        pop     af
6d2a 79        ld      a,c
6d2b dd218e66  ld      ix,668eh
6d2f cd1e73    call    731eh
6d32 e1        pop     hl
6d33 c1        pop     bc
6d34 e3        ex      (sp),hl
6d35 d5        push    de
6d36 c5        push    bc
6d37 dd21d067  ld      ix,67d0h
6d3b cd1e73    call    731eh
6d3e c1        pop     bc
6d3f d1        pop     de
6d40 e3        ex      (sp),hl
6d41 c5        push    bc
6d42 e5        push    hl
6d43 23        inc     hl
6d44 f5        push    af
6d45 73        ld      (hl),e
6d46 23        inc     hl
6d47 72        ld      (hl),d
6d48 f1        pop     af
6d49 e1        pop     hl
6d4a 23        inc     hl
6d4b 5e        ld      e,(hl)
6d4c 23        inc     hl
6d4d 56        ld      d,(hl)
6d4e c1        pop     bc
6d4f e1        pop     hl
6d50 23        inc     hl
6d51 7e        ld      a,(hl)
6d52 23        inc     hl
6d53 66        ld      h,(hl)
6d54 6f        ld      l,a
6d55 79        ld      a,c
6d56 b8        cp      b
6d57 3001      jr      nc,6d5ah
6d59 47        ld      b,a
6d5a 90        sub     b
6d5b 4f        ld      c,a
6d5c f1        pop     af
6d5d d4746d    call    nc,6d74h
6d60 04        inc     b
6d61 05        dec     b
6d62 280b      jr      z,6d6fh
6d64 7e        ld      a,(hl)
6d65 12        ld      (de),a
6d66 23        inc     hl
6d67 13        inc     de
6d68 18f7      jr      6e61h
6d6a c1        pop     bc
6d6b c1        pop     bc
6d6c c1        pop     bc
6d6d c1        pop     bc
6d6e c1        pop     bc
6d6f dc746d    call    c,6d74h
6d72 e1        pop     hl
6d73 c9        ret     
6d74 3e20      ld      a,20h
6d76 0c        inc     c
6d77 0d        dec     c
6d78 c8        ret     z
6d79 12        ld      (de),a
6d7a 13        inc     de
6d7b 18fa      jr      6e77h
6d7d f1        pop     af
6d7e e1        pop     hl
6d7f c1        pop     bc
6d80 e3        ex      (sp),hl
6d81 eb        ex      de,hl
6d82 2025      jr      nz,6da9h
6d84 c5        push    bc
6d85 78        ld      a,b
6d86 dd212766  ld      ix,6627h
6d8a cd1e73    call    731eh
6d8d 1198f6    ld      de,0f698h
6d90 2a78f6    ld      hl,(0f678h)
6d93 22f8f7    ld      (0f7f8h),hl
6d96 3e03      ld      a,03h
6d98 3263f6    ld      (0f663h),a
6d9b cdf32e    call    2ef3h
6d9e 119bf6    ld      de,0f69bh
6da1 e7        rst     20h
6da2 2278f6    ld      (0f678h),hl
6da5 caf772    jp      z,72f7h
6da8 c1        pop     bc
6da9 e3        ex      (sp),hl
6daa c5        push    bc
6dab e5        push    hl
6dac c32a6d    jp      6d2ah
6daf 3e02      ld      a,02h
6db1 013e04    ld      bc,043eh
6db4 013e08    ld      bc,083eh
6db7 cd8073    call    7380h
6dba f5        push    af
6dbb dd217a51  ld      ix,517ah
6dbf cd1e73    call    731eh
6dc2 f1        pop     af
6dc3 dd212766  ld      ix,6627h
6dc7 cd1e73    call    731eh
6dca 2a99f6    ld      hl,(0f699h)
6dcd cd102f    call    2f10h
6dd0 c3f161    jp      61f1h
6dd3 00        nop     
6dd4 00        nop     
6dd5 00        nop     
6dd6 00        nop     
6dd7 3e01      ld      a,01h
6dd9 013e03    ld      bc,033eh
6ddc 013e07    ld      bc,073eh
6ddf cd8073    call    7380h
6de2 f5        push    af
6de3 dd21d067  ld      ix,67d0h
6de7 cd1e73    call    731eh
6dea f1        pop     af
6deb be        cp      (hl)
6dec d21573    jp      nc,7315h
6def 3c        inc     a
6df0 23        inc     hl
6df1 4e        ld      c,(hl)
6df2 23        inc     hl
6df3 66        ld      h,(hl)
6df4 69        ld      l,c
6df5 3263f6    ld      (0f663h),a
6df8 c3082f    jp      2f08h
6dfb dd219755  ld      ix,5597h
6dff cd1e73    call    731eh
6e02 ed4bf8f7  ld      bc,(0f7f8h)
6e06 210000    ld      hl,0000h
6e09 f8        ret     m
6e0a cafa72    jp      z,72fah
6e0d 21f6f7    ld      hl,0f7f6h
6e10 11fcf5    ld      de,0f5fch
6e13 010800    ld      bc,0008h
6e16 edb0      ldir    
6e18 21686e    ld      hl,6e68h
6e1b 1147f8    ld      de,0f847h
6e1e 0e08      ld      c,08h
6e20 edb0      ldir    
6e22 cd9f28    call    289fh
6e25 a7        and     a
6e26 cdd130    call    30d1h
6e29 dd213254  ld      ix,5432h
6e2d cd1e73    call    731eh
6e30 d5        push    de
6e31 eb        ex      de,hl
6e32 dd21ff46  ld      ix,46ffh
6e36 cd1e73    call    731eh
6e39 cd4230    call    3042h
6e3c 014565    ld      bc,6545h
6e3f 115360    ld      de,6053h
6e42 cd5c32    call    325ch
6e45 21f6f7    ld      hl,0f7f6h
6e48 1147f8    ld      de,0f847h
6e4b 010800    ld      bc,0008h
6e4e edb0      ldir    
6e50 21fcf5    ld      hl,0f5fch
6e53 11f6f7    ld      de,0f7f6h
6e56 0e08      ld      c,08h
6e58 edb0      ldir    
6e5a cd8c26    call    268ch
6e5d dd213254  ld      ix,5432h
6e61 cd1e73    call    731eh
6e64 4b        ld      c,e
6e65 42        ld      b,d
6e66 e1        pop     hl
6e67 c9        ret     
6e68 45        ld      b,l
6e69 65        ld      h,l
6e6a 53        ld      d,e
6e6b 60        ld      h,b
6e6c 00        nop     
6e6d 00        nop     
6e6e 00        nop     
6e6f 00        nop     
6e70 cd8073    call    7380h
6e73 e5        push    hl
6e74 cd2a68    call    682ah
6e77 210000    ld      hl,0000h
6e7a 3001      jr      nc,6e7dh
6e7c 2b        dec     hl
6e7d f5        push    af
6e7e cd992f    call    2f99h
6e81 f1        pop     af
6e82 e1        pop     hl
6e83 23        inc     hl
6e84 23        inc     hl
6e85 23        inc     hl
6e86 77        ld      (hl),a
6e87 c9        ret     
6e88 cd8073    call    7380h
6e8b 1600      ld      d,00h
6e8d 2806      jr      z,6e95h
6e8f cd806f    call    6f80h
6e92 e5        push    hl
6e93 1804      jr      6e99h
6e95 e5        push    hl
6e96 cdfe6f    call    6ffeh
6e99 cd636f    call    6f63h
6e9c 3a16f4    ld      a,(0f416h)
6e9f a7        and     a
6ea0 f5        push    af
6ea1 cd4566    call    6645h
6ea4 ca1273    jp      z,7312h
6ea7 dd212373  ld      ix,7323h
6eab cd1e73    call    731eh
6eae 21b3f5    ld      hl,0f5b3h
6eb1 060b      ld      b,0bh
6eb3 7e        ld      a,(hl)
6eb4 23        inc     hl
6eb5 df        rst     18h
6eb6 78        ld      a,b
6eb7 fe04      cp      04h
6eb9 2008      jr      nz,6ec3h
6ebb 7e        ld      a,(hl)
6ebc fe20      cp      20h
6ebe 2802      jr      z,6ec2h
6ec0 3e2e      ld      a,2eh
6ec2 df        rst     18h
6ec3 10ee      djnz    6fb3h
6ec5 cdbd00    call    00bdh
6ec8 f1        pop     af
6ec9 f5        push    af
6eca 3ab0f3    ld      a,(0f3b0h)
6ecd 47        ld      b,a
6ece 3a61f6    ld      a,(0f661h)
6ed1 2805      jr      z,6ed8h
6ed3 0650      ld      b,50h
6ed5 3a15f4    ld      a,(0f415h)
6ed8 a7        and     a
6ed9 280f      jr      z,6eeah
6edb c60c      add     a,0ch
6edd b8        cp      b
6ede 3003      jr      nc,6ee3h
6ee0 3e20      ld      a,20h
6ee2 df        rst     18h
6ee3 dd212873  ld      ix,7328h
6ee7 d41e73    call    nc,731eh
6eea 1168f5    ld      de,0f568h
6eed af        xor     a
6eee 3274f5    ld      (0f574h),a
6ef1 cd0650    call    5006h
6ef4 3c        inc     a
6ef5 20b7      jr      nz,6faeh
6ef7 f1        pop     af
6ef8 e1        pop     hl
6ef9 dd21ff4a  ld      ix,4affh
6efd c31e73    jp      731eh
6f00 cd8073    call    7380h
6f03 cd966f    call    6f96h
6f06 cdda72    call    72dah
6f09 c0        ret     nz
6f0a cdea65    call    65eah
6f0d caa271    jp      z,71a2h
6f10 cd636f    call    6f63h
6f13 e5        push    hl
6f14 1168f5    ld      de,0f568h
6f17 cd6c43    call    436ch
6f1a a7        and     a
6f1b c21273    jp      nz,7312h
6f1e e1        pop     hl
6f1f c9        ret     
6f20 cd8073    call    7380h
6f23 cd966f    call    6f96h
6f26 cdea65    call    65eah
6f29 caa271    jp      z,71a2h
6f2c cd636f    call    6f63h
6f2f e5        push    hl
6f30 cd4566    call    6645h
6f33 ca1273    jp      z,7312h
6f36 e1        pop     hl
6f37 cdd072    call    72d0h
6f3a 41        ld      b,c
6f3b cdd072    call    72d0h
6f3e 53        ld      d,e
6f3f cd966f    call    6f96h
6f42 7a        ld      a,d
6f43 3278f5    ld      (0f578h),a
6f46 e5        push    hl
6f47 2a68f5    ld      hl,(0f568h)
6f4a a7        and     a
6f4b 2804      jr      z,6f51h
6f4d bd        cp      l
6f4e c2b771    jp      nz,71b7h
6f51 1179f5    ld      de,0f579h
6f54 cd5a66    call    665ah
6f57 1168f5    ld      de,0f568h
6f5a cd9243    call    4392h
6f5d a7        and     a
6f5e c2a571    jp      nz,71a5h
6f61 e1        pop     hl
6f62 c9        ret     
6f63 cde365    call    65e3h
6f66 3c        inc     a
6f67 3268f5    ld      (0f568h),a
6f6a e5        push    hl
6f6b d5        push    de
6f6c cd5766    call    6657h
6f6f d1        pop     de
6f70 e1        pop     hl
6f71 c9        ret     
6f72 dd210e6a  ld      ix,6a0eh
6f76 cd1e73    call    731eh
6f79 7a        ld      a,d
6f7a fe09      cp      09h
6f7c d8        ret     c
6f7d c39c71    jp      719ch
6f80 cd726f    call    6f72h
6f83 e5        push    hl
6f84 2166f8    ld      hl,0f866h
6f87 060b      ld      b,0bh
6f89 7e        ld      a,(hl)
6f8a 23        inc     hl
6f8b fe20      cp      20h
6f8d 200b      jr      nz,6f9ah
6f8f 10f8      djnz    7089h
6f91 cdfe6f    call    6ffeh
6f94 1804      jr      6f9ah
6f96 cd726f    call    6f72h
6f99 e5        push    hl
6f9a 2166f8    ld      hl,0f866h
6f9d 0608      ld      b,08h
6f9f cdf56f    call    6ff5h
6fa2 0603      ld      b,03h
6fa4 cdf56f    call    6ff5h
6fa7 e1        pop     hl
6fa8 f637      or      37h
6faa d5        push    de
6fab e5        push    hl
6fac 1166f8    ld      de,0f866h
6faf d5        push    de
6fb0 060b      ld      b,0bh
6fb2 c5        push    bc
6fb3 1a        ld      a,(de)
6fb4 21cc6f    ld      hl,6fcch
6fb7 010d00    ld      bc,000dh
6fba 3801      jr      c,6fbdh
6fbc 0b        dec     bc
6fbd edb1      cpir    
6fbf 2831      jr      z,6ff2h
6fc1 c1        pop     bc
6fc2 13        inc     de
6fc3 10ed      djnz    70b2h
6fc5 e1        pop     hl
6fc6 cdd96f    call    6fd9h
6fc9 e1        pop     hl
6fca d1        pop     de
6fcb c9        ret     
6fcc 2e22      ld      l,22h
6fce 2f        cpl     
6fcf 5c        ld      e,h
6fd0 5b        ld      e,e
6fd1 5d        ld      e,l
6fd2 3a2b3d    ld      a,(3d2bh)
6fd5 3b        dec     sp
6fd6 2c        inc     l
6fd7 2a3f3e    ld      hl,(3e3fh)
6fda 20be      jr      nz,709ah
6fdc 2814      jr      z,6ff2h
6fde 0607      ld      b,07h
6fe0 cde56f    call    6fe5h
6fe3 0603      ld      b,03h
6fe5 23        inc     hl
6fe6 be        cp      (hl)
6fe7 2803      jr      z,6fech
6fe9 10fa      djnz    70e5h
6feb c9        ret     
6fec 05        dec     b
6fed c8        ret     z
6fee 23        inc     hl
6fef be        cp      (hl)
6ff0 28fa      jr      z,70ech
6ff2 c30f73    jp      730fh
6ff5 7e        ld      a,(hl)
6ff6 fe2a      cp      2ah
6ff8 2809      jr      z,7003h
6ffa 23        inc     hl
6ffb 10f8      djnz    70f5h
6ffd c9        ret     
6ffe 2166f8    ld      hl,0f866h
7001 060b      ld      b,0bh
7003 363f      ld      (hl),3fh
7005 23        inc     hl
7006 10fb      djnz    7103h
7008 c9        ret     
7009 011000    ld      bc,0010h
700c 110121    ld      de,2101h
700f 00        nop     
7010 cd8073    call    7380h
7013 c5        push    bc
7014 dd211f52  ld      ix,521fh
7018 cd1e73    call    731eh
701b dd216d6a  ld      ix,6a6dh
701f cd1e73    call    731eh
7022 da1573    jp      c,7315h
7025 ca0073    jp      z,7300h
7028 c1        pop     bc
7029 23        inc     hl
702a 5e        ld      e,(hl)
702b 23        inc     hl
702c 56        ld      d,(hl)
702d eb        ex      de,hl
702e 09        add     hl,bc
702f 4e        ld      c,(hl)
7030 23        inc     hl
7031 46        ld      b,(hl)
7032 23        inc     hl
7033 5e        ld      e,(hl)
7034 23        inc     hl
7035 56        ld      d,(hl)
7036 eb        ex      de,hl
7037 c5        push    bc
7038 dd21ff46  ld      ix,46ffh
703c cd1e73    call    731eh
703f 014565    ld      bc,6545h
7042 115360    ld      de,6053h
7045 cd5c32    call    325ch
7048 21f6f7    ld      hl,0f7f6h
704b 1147f8    ld      de,0f847h
704e 010800    ld      bc,0008h
7051 edb0      ldir    
7053 e1        pop     hl
7054 dd21ff46  ld      ix,46ffh
7058 cd1e73    call    731eh
705b cd4230    call    3042h
705e c39a26    jp      269ah
7061 cd8073    call    7380h
7064 dd211f52  ld      ix,521fh
7068 cd1e73    call    731eh
706b 2147f3    ld      hl,0f347h
706e be        cp      (hl)
706f 2803      jr      z,7074h
7071 d29c71    jp      nc,719ch
7074 5f        ld      e,a
7075 cd5d50    call    505dh
7078 c3992f    jp      2f99h
707b cd8073    call    7380h
707e cd806f    call    6f80h
7081 cdea65    call    65eah
7084 caa271    jp      z,71a2h
7087 cd636f    call    6f63h
708a e5        push    hl
708b 3a47f2    ld      a,(0f247h)
708e 3c        inc     a
708f 328df5    ld      (0f58dh),a
7092 2169f5    ld      hl,0f569h
7095 118ef5    ld      de,0f58eh
7098 012400    ld      bc,0024h
709b edb0      ldir    
709d e1        pop     hl
709e cdda72    call    72dah
70a1 2820      jr      z,70c3h
70a3 cdd072    call    72d0h
70a6 d9        exx     
70a7 cd806f    call    6f80h
70aa cdea65    call    65eah
70ad caa271    jp      z,71a2h
70b0 cde365    call    65e3h
70b3 3c        inc     a
70b4 328df5    ld      (0f58dh),a
70b7 e5        push    hl
70b8 118ef5    ld      de,0f58eh
70bb cd5a66    call    665ah
70be e1        pop     hl
70bf cdda72    call    72dah
70c2 c0        ret     nz
70c3 e5        push    hl
70c4 cd4566    call    6645h
70c7 ca1273    jp      z,7312h
70ca cdbd00    call    00bdh
70cd 018df5    ld      bc,0f58dh
70d0 11d7f5    ld      de,0f5d7h
70d3 21b2f5    ld      hl,0f5b2h
70d6 3e0c      ld      a,0ch
70d8 f5        push    af
70d9 0a        ld      a,(bc)
70da fe3f      cp      3fh
70dc 2001      jr      nz,70dfh
70de 7e        ld      a,(hl)
70df 12        ld      (de),a
70e0 03        inc     bc
70e1 13        inc     de
70e2 23        inc     hl
70e3 f1        pop     af
70e4 3d        dec     a
70e5 20f1      jr      nz,71d8h
70e7 21b2f5    ld      hl,0f5b2h
70ea 11d7f5    ld      de,0f5d7h
70ed 060c      ld      b,0ch
70ef 1a        ld      a,(de)
70f0 be        cp      (hl)
70f1 2007      jr      nz,70fah
70f3 23        inc     hl
70f4 13        inc     de
70f5 10f8      djnz    71efh
70f7 c31573    jp      7315h
70fa cd6c71    call    716ch
70fd e5        push    hl
70fe af        xor     a
70ff 32bef5    ld      (0f5beh),a
7102 11b2f5    ld      de,0f5b2h
7105 cd6244    call    4462h
7108 11d7f5    ld      de,0f5d7h
710b cd1d46    call    461dh
710e a7        and     a
710f c2ab71    jp      nz,71abh
7112 6f        ld      l,a
7113 67        ld      h,a
7114 22d3f5    ld      (0f5d3h),hl
7117 22d5f5    ld      (0f5d5h),hl
711a 22f8f5    ld      (0f5f8h),hl
711d 22faf5    ld      (0f5fah),hl
7120 23        inc     hl
7121 22c0f5    ld      (0f5c0h),hl
7124 22e5f5    ld      (0f5e5h),hl
7127 e1        pop     hl
7128 e5        push    hl
7129 11b2f5    ld      de,0f5b2h
712c cdb247    call    47b2h
712f 7d        ld      a,l
7130 b4        or      h
7131 2809      jr      z,713ch
7133 11d7f5    ld      de,0f5d7h
7136 cd8f71    call    718fh
7139 e1        pop     hl
713a 18ec      jr      7228h
713c e1        pop     hl
713d 2ac6f5    ld      hl,(0f5c6h)
7140 22ebf5    ld      (0f5ebh),hl
7143 2ac8f5    ld      hl,(0f5c8h)
7146 22edf5    ld      (0f5edh),hl
7149 11d7f5    ld      de,0f5d7h
714c cd6f45    call    456fh
714f 21b2f5    ld      hl,0f5b2h
7152 223df2    ld      (0f23dh),hl
7155 1168f5    ld      de,0f568h
7158 af        xor     a
7159 3274f5    ld      (0f574h),a
715c cd0650    call    5006h
715f 3c        inc     a
7160 c2ca70    jp      nz,70cah
7163 e1        pop     hl
7164 c9        ret     
7165 22bffc    ld      (0fcbfh),hl
7168 ed437df8  ld      (0f87dh),bc
716c 2100fe    ld      hl,0fe00h
716f 39        add     hl,sp
7170 300d      jr      nc,717fh
7172 ed5bc6f6  ld      de,(0f6c6h)
7176 a7        and     a
7177 ed52      sbc     hl,de
7179 3804      jr      c,717fh
717b 7c        ld      a,h
717c a7        and     a
717d 2007      jr      nz,7186h
717f ed5b62f8  ld      de,(0f862h)
7183 210001    ld      hl,0100h
7186 ed533df2  ld      (0f23dh),de
718a c9        ret     
718b ed5b53f3  ld      de,(0f353h)
718f cdbe47    call    47beh
7192 a7        and     a
7193 c8        ret     z
7194 1812      jr      71a8h
7196 1e3c      ld      e,3ch
7198 011e3d    ld      bc,3d1eh
719b 011e3e    ld      bc,3e1eh
719e 011e3f    ld      bc,3f1eh
71a1 011e40    ld      bc,401eh
71a4 011e41    ld      bc,411eh
71a7 011e42    ld      bc,421eh
71aa 011e43    ld      bc,431eh
71ad 011e44    ld      bc,441eh
71b0 011e45    ld      bc,451eh
71b3 011e46    ld      bc,461eh
71b6 011e47    ld      bc,471eh
71b9 010000    ld      bc,0000h
71bc af        xor     a
71bd 327cf8    ld      (0f87ch),a
71c0 32aefc    ld      (0fcaeh),a
71c3 d5        push    de
71c4 dd21246b  ld      ix,6b24h
71c8 cd1e73    call    731eh
71cb d1        pop     de
71cc dd216f40  ld      ix,406fh
71d0 c31e73    jp      731eh
71d3 7b        ld      a,e
71d4 fe3c      cp      3ch
71d6 d8        ret     c
71d7 fe48      cp      48h
71d9 d0        ret     nc
71da d63b      sub     3bh
71dc 47        ld      b,a
71dd 21f571    ld      hl,71f5h
71e0 7e        ld      a,(hl)
71e1 a7        and     a
71e2 23        inc     hl
71e3 20fb      jr      nz,72e0h
71e5 10f9      djnz    72e0h
71e7 2b        dec     hl
71e8 1104f6    ld      de,0f604h
71eb d5        push    de
71ec 011600    ld      bc,0016h
71ef edb0      ldir    
71f1 1e01      ld      e,01h
71f3 e1        pop     hl
71f4 c9        ret     
71f5 00        nop     
71f6 42        ld      b,d
71f7 61        ld      h,c
71f8 64        ld      h,h
71f9 2046      jr      nz,7241h
71fb 41        ld      b,c
71fc 54        ld      d,h
71fd 00        nop     
71fe 42        ld      b,d
71ff 61        ld      h,c
7200 64        ld      h,h
7201 2066      jr      nz,7269h
7203 69        ld      l,c
7204 6c        ld      l,h
7205 65        ld      h,l
7206 206d      jr      nz,7275h
7208 6f        ld      l,a
7209 64        ld      h,h
720a 65        ld      h,l
720b 00        nop     
720c 42        ld      b,d
720d 61        ld      h,c
720e 64        ld      h,h
720f 2064      jr      nz,7275h
7211 72        ld      (hl),d
7212 69        ld      l,c
7213 76        halt    
7214 65        ld      h,l
7215 206e      jr      nz,7285h
7217 61        ld      h,c
7218 6d        ld      l,l
7219 65        ld      h,l
721a 00        nop     
721b 42        ld      b,d
721c 61        ld      h,c
721d 64        ld      h,h
721e 2073      jr      nz,7293h
7220 65        ld      h,l
7221 63        ld      h,e
7222 74        ld      (hl),h
7223 6f        ld      l,a
7224 72        ld      (hl),d
7225 206e      jr      nz,7295h
7227 75        ld      (hl),l
7228 6d        ld      l,l
7229 62        ld      h,d
722a 65        ld      h,l
722b 72        ld      (hl),d
722c 00        nop     
722d 46        ld      b,(hl)
722e 69        ld      l,c
722f 6c        ld      l,h
7230 65        ld      h,l
7231 2073      jr      nz,72a6h
7233 74        ld      (hl),h
7234 69        ld      l,c
7235 6c        ld      l,h
7236 6c        ld      l,h
7237 206f      jr      nz,72a8h
7239 70        ld      (hl),b
723a 65        ld      h,l
723b 6e        ld      l,(hl)
723c 00        nop     
723d 46        ld      b,(hl)
723e 69        ld      l,c
723f 6c        ld      l,h
7240 65        ld      h,l
7241 2061      jr      nz,72a4h
7243 6c        ld      l,h
7244 72        ld      (hl),d
7245 65        ld      h,l
7246 61        ld      h,c
7247 64        ld      h,h
7248 79        ld      a,c
7249 2065      jr      nz,72b0h
724b 78        ld      a,b
724c 69        ld      l,c
724d 73        ld      (hl),e
724e 74        ld      (hl),h
724f 73        ld      (hl),e
7250 00        nop     
7251 44        ld      b,h
7252 69        ld      l,c
7253 73        ld      (hl),e
7254 6b        ld      l,e
7255 2066      jr      nz,72bdh
7257 75        ld      (hl),l
7258 6c        ld      l,h
7259 6c        ld      l,h
725a 00        nop     
725b 54        ld      d,h
725c 6f        ld      l,a
725d 6f        ld      l,a
725e 206d      jr      nz,72cdh
7260 61        ld      h,c
7261 6e        ld      l,(hl)
7262 79        ld      a,c
7263 2066      jr      nz,72cbh
7265 69        ld      l,c
7266 6c        ld      l,h
7267 65        ld      h,l
7268 73        ld      (hl),e
7269 00        nop     
726a 44        ld      b,h
726b 69        ld      l,c
726c 73        ld      (hl),e
726d 6b        ld      l,e
726e 2077      jr      nz,72e7h
7270 72        ld      (hl),d
7271 69        ld      l,c
7272 74        ld      (hl),h
7273 65        ld      h,l
7274 2070      jr      nz,72e6h
7276 72        ld      (hl),d
7277 6f        ld      l,a
7278 74        ld      (hl),h
7279 65        ld      h,l
727a 63        ld      h,e
727b 74        ld      (hl),h
727c 65        ld      h,l
727d 64        ld      h,h
727e 00        nop     
727f 44        ld      b,h
7280 69        ld      l,c
7281 73        ld      (hl),e
7282 6b        ld      l,e
7283 2049      jr      nz,72ceh
7285 2f        cpl     
7286 4f        ld      c,a
7287 2065      jr      nz,72eeh
7289 72        ld      (hl),d
728a 72        ld      (hl),d
728b 6f        ld      l,a
728c 72        ld      (hl),d
728d 00        nop     
728e 44        ld      b,h
728f 69        ld      l,c
7290 73        ld      (hl),e
7291 6b        ld      l,e
7292 206f      jr      nz,7303h
7294 66        ld      h,(hl)
7295 66        ld      h,(hl)
7296 6c        ld      l,h
7297 69        ld      l,c
7298 6e        ld      l,(hl)
7299 65        ld      h,l
729a 00        nop     
729b 52        ld      d,d
729c 65        ld      h,l
729d 6e        ld      l,(hl)
729e 61        ld      h,c
729f 6d        ld      l,l
72a0 65        ld      h,l
72a1 2061      jr      nz,7304h
72a3 63        ld      h,e
72a4 72        ld      (hl),d
72a5 6f        ld      l,a
72a6 73        ld      (hl),e
72a7 73        ld      (hl),e
72a8 2064      jr      nz,730eh
72aa 69        ld      l,c
72ab 73        ld      (hl),e
72ac 6b        ld      l,e
72ad 00        nop     
72ae b0        or      b
72af 72        ld      (hl),d
72b0 cb79      bit     7,c
72b2 c29671    jp      nz,7196h
72b5 cb81      res     0,c
72b7 0600      ld      b,00h
72b9 21c272    ld      hl,72c2h
72bc 09        add     hl,bc
72bd 7e        ld      a,(hl)
72be 23        inc     hl
72bf 66        ld      h,(hl)
72c0 6f        ld      l,a
72c1 e9        jp      (hl)
72c2 ae        xor     (hl)
72c3 71        ld      (hl),c
72c4 b4        or      h
72c5 71        ld      (hl),c
72c6 b1        or      c
72c7 71        ld      (hl),c
72c8 b1        or      c
72c9 71        ld      (hl),c
72ca b1        or      c
72cb 71        ld      (hl),c
72cc b1        or      c
72cd 71        ld      (hl),c
72ce b1        or      c
72cf 71        ld      (hl),c
72d0 cdda72    call    72dah
72d3 e3        ex      (sp),hl
72d4 be        cp      (hl)
72d5 2041      jr      nz,7318h
72d7 23        inc     hl
72d8 e3        ex      (sp),hl
72d9 23        inc     hl
72da 2b        dec     hl
72db dd216646  ld      ix,4666h
72df 183d      jr      731eh
72e1 00        nop     
72e2 00        nop     
72e3 00        nop     
72e4 3ec9      ld      a,0c9h
72e6 32d5fe    ld      (0fed5h),a
72e9 ed5b4afc  ld      de,(0fc4ah)
72ed ed5349f3  ld      (0f349h),de
72f1 c9        ret     
72f2 f7        rst     30h
72f3 00        nop     
72f4 e472c9    call    po,0c972h
72f7 1e10      ld      e,10h
72f9 011e0d    ld      bc,0d1eh
72fc 011e07    ld      bc,071eh
72ff 011e3b    ld      bc,3b1eh
7302 011e37    ld      bc,371eh
7305 011e32    ld      bc,321eh
7308 011e36    ld      bc,361eh
730b 011e34    ld      bc,341eh
730e 011e38    ld      bc,381eh
7311 011e35    ld      bc,351eh
7314 011e05    ld      bc,051eh
7317 011e02    ld      bc,021eh
731a dd216f40  ld      ix,406fh
731e cd5901    call    0159h
7321 fb        ei      
7322 c9        ret     
7323 fb        ei      
7324 e5        push    hl
7325 d5        push    de
7326 3a48f3    ld      a,(0f348h)
7329 87        add     a,a
732a 211000    ld      hl,0010h
732d 3002      jr      nc,7331h
732f 2e18      ld      l,18h
7331 39        add     hl,sp
7332 5e        ld      e,(hl)
7333 23        inc     hl
7334 56        ld      d,(hl)
7335 e5        push    hl
7336 21956e    ld      hl,6e95h
7339 e7        rst     20h
733a e1        pop     hl
733b 280d      jr      z,734ah
733d e5        push    hl
733e 21c96e    ld      hl,6ec9h
7341 e7        rst     20h
7342 e1        pop     hl
7343 200b      jr      nz,7350h
7345 1177f3    ld      de,0f377h
7348 1803      jr      734dh
734a 117af3    ld      de,0f37ah
734d 72        ld      (hl),d
734e 2b        dec     hl
734f 73        ld      (hl),e
7350 d1        pop     de
7351 e1        pop     hl
7352 7b        ld      a,e
7353 fe02      cp      02h
7355 d8        ret     c
7356 7e        ld      a,(hl)
7357 fe3a      cp      3ah
7359 28b4      jr      z,740fh
735b 23        inc     hl
735c 7e        ld      a,(hl)
735d fe3a      cp      3ah
735f 2b        dec     hl
7360 c0        ret     nz
7361 cd8073    call    7380h
7364 7e        ld      a,(hl)
7365 e6df      and     0dfh
7367 d640      sub     40h
7369 e5        push    hl
736a 2147f3    ld      hl,0f347h
736d be        cp      (hl)
736e e1        pop     hl
736f 2803      jr      z,7374h
7371 d29c71    jp      nc,719ch
7374 23        inc     hl
7375 23        inc     hl
7376 1d        dec     e
7377 1d        dec     e
7378 d5        push    de
7379 1c        inc     e
737a d1        pop     de
737b c9        ret     
737c fb        ei      
737d 3e00      ld      a,00h
737f c9        ret     
7380 fb        ei      
7381 e5        push    hl
7382 f5        push    af
7383 3a48f3    ld      a,(0f348h)
7386 87        add     a,a
7387 210c00    ld      hl,000ch
738a 3002      jr      nc,738eh
738c 2e14      ld      l,14h
738e 39        add     hl,sp
738f 368b      ld      (hl),8bh
7391 23        inc     hl
7392 36f3      ld      (hl),0f3h
7394 f1        pop     af
7395 e1        pop     hl
7396 c9        ret     
7397 cd6bf3    call    0f36bh
739a 1a        ld      a,(de)
739b cd68f3    call    0f368h
739e 13        inc     de
739f fe24      cp      24h
73a1 c8        ret     z
73a2 cda853    call    53a8h
73a5 18f0      jr      7497h
73a7 cd6bf3    call    0f36bh
73aa edb0      ldir    
73ac cd68f3    call    0f368h
73af c9        ret     
73b0 cd6bf3    call    0f36bh
73b3 c30000    jp      0000h
73b6 11def1    ld      de,0f1deh
73b9 d5        push    de
73ba 5e        ld      e,(hl)
73bb 23        inc     hl
73bc 56        ld      d,(hl)
73bd eb        ex      de,hl
73be cd6bf3    call    0f36bh
73c1 e9        jp      (hl)
73c2 c30456    jp      5604h
73c5 50        ld      d,b
73c6 52        ld      d,d
73c7 4e        ld      c,(hl)
73c8 204c      jr      nz,7416h
73ca 53        ld      d,e
73cb 54        ld      d,h
73cc 204e      jr      nz,741ch
73ce 55        ld      d,l
73cf 4c        ld      c,h
73d0 2041      jr      nz,7413h
73d2 55        ld      d,l
73d3 58        ld      e,b
73d4 2043      jr      nz,7419h
73d6 4f        ld      c,a
73d7 4e        ld      c,(hl)
73d8 2020      jr      nz,73fah
73da 2020      jr      nz,73fch
73dc 2020      jr      nz,73feh
73de 2020      jr      nz,7400h
73e0 2020      jr      nz,7402h
73e2 2020      jr      nz,7404h
73e4 80        add     a,b
73e5 00        nop     
73e6 00        nop     
73e7 00        nop     
73e8 00        nop     
73e9 00        nop     
73ea 00        nop     
73eb 00        nop     
73ec 00        nop     
73ed 00        nop     
73ee 00        nop     
73ef 00        nop     
73f0 00        nop     
73f1 00        nop     
73f2 00        nop     
73f3 00        nop     
73f4 00        nop     
73f5 00        nop     
73f6 00        nop     
73f7 00        nop     
73f8 00        nop     
73f9 1f        rra     
73fa 1c        inc     e
73fb 1f        rra     
73fc 1e1f      ld      e,1fh
73fe 1e1f      ld      e,1fh
7400 1f        rra     
7401 1e1f      ld      e,1fh
7403 1e1f      ld      e,1fh
7405 c5        push    bc
7406 d5        push    de
7407 78        ld      a,b
7408 b7        or      a
7409 dba8      in      a,(0a8h)
740b 2806      jr      z,7413h
740d c5        push    bc
740e 0f        rrca    
740f 0f        rrca    
7410 10fc      djnz    750eh
7412 c1        pop     bc
7413 e603      and     03h
7415 5f        ld      e,a
7416 1600      ld      d,00h
7418 21c1fc    ld      hl,0fcc1h
741b 19        add     hl,de
741c 5f        ld      e,a
741d 7e        ld      a,(hl)
741e e680      and     80h
7420 b3        or      e
7421 5f        ld      e,a
7422 23        inc     hl
7423 23        inc     hl
7424 23        inc     hl
7425 23        inc     hl
7426 78        ld      a,b
7427 b7        or      a
7428 7e        ld      a,(hl)
7429 07        rlca    
742a 07        rlca    
742b 2804      jr      z,7431h
742d 0f        rrca    
742e 0f        rrca    
742f 10fc      djnz    752dh
7431 e60c      and     0ch
7433 b3        or      e
7434 d1        pop     de
7435 c1        pop     bc
7436 c9        ret     
7437 f3        di      
7438 c5        push    bc
7439 47        ld      b,a
743a e603      and     03h
743c 4f        ld      c,a
743d 78        ld      a,b
743e cb7f      bit     7,a
7440 2009      jr      nz,744bh
7442 dba8      in      a,(0a8h)
7444 e6fc      and     0fch
7446 b1        or      c
7447 d3a8      out     (0a8h),a
7449 c1        pop     bc
744a c9        ret     
744b d5        push    de
744c dba8      in      a,(0a8h)
744e e6fc      and     0fch
7450 b1        or      c
7451 57        ld      d,a
7452 0f        rrca    
7453 0f        rrca    
7454 e6c0      and     0c0h
7456 5f        ld      e,a
7457 7a        ld      a,d
7458 e63f      and     3fh
745a b3        or      e
745b d3a8      out     (0a8h),a
745d 78        ld      a,b
745e e60c      and     0ch
7460 0f        rrca    
7461 0f        rrca    
7462 4f        ld      c,a
7463 3affff    ld      a,(0ffffh)
7466 2f        cpl     
7467 e6fc      and     0fch
7469 b1        or      c
746a 32ffff    ld      (0ffffh),a
746d 7a        ld      a,d
746e d3a8      out     (0a8h),a
7470 d1        pop     de
7471 c1        pop     bc
7472 c9        ret     
7473 f5        push    af
7474 c5        push    bc
7475 d5        push    de
7476 e5        push    hl
7477 cdc25f    call    5fc2h
747a 0600      ld      b,00h
747c cd0574    call    7405h
747f dd7718    ld      (ix+18h),a
7482 0601      ld      b,01h
7484 cd0574    call    7405h
7487 dd7717    ld      (ix+17h),a
748a 0602      ld      b,02h
748c cd0574    call    7405h
748f dd7716    ld      (ix+16h),a
7492 f3        di      
7493 dd7e17    ld      a,(ix+17h)
7496 cd3774    call    7437h
7499 e1        pop     hl
749a d1        pop     de
749b c1        pop     bc
749c f1        pop     af
749d c9        ret     
749e f8        ret     m
749f 00        nop     
74a0 02        ld      (bc),a
74a1 0f        rrca    
74a2 04        inc     b
74a3 010201    ld      bc,0102h
74a6 00        nop     
74a7 02        ld      (bc),a
74a8 70        ld      (hl),b
74a9 0c        inc     c
74aa 00        nop     
74ab 63        ld      h,e
74ac 010205    ld      bc,0502h
74af 00        nop     
74b0 f9        ld      sp,hl
74b1 00        nop     
74b2 02        ld      (bc),a
74b3 0f        rrca    
74b4 04        inc     b
74b5 010201    ld      bc,0102h
74b8 00        nop     
74b9 02        ld      (bc),a
74ba 70        ld      (hl),b
74bb 0e00      ld      c,00h
74bd ca0203    jp      z,0302h
74c0 07        rlca    
74c1 00        nop     
74c2 fa0002    jp      m,0200h
74c5 0f        rrca    
74c6 04        inc     b
74c7 010201    ld      bc,0102h
74ca 00        nop     
74cb 02        ld      (bc),a
74cc 70        ld      (hl),b
74cd 0a        ld      a,(bc)
74ce 00        nop     
74cf 3c        inc     a
74d0 010103    ld      bc,0301h
74d3 00        nop     
74d4 fb        ei      
74d5 00        nop     
74d6 02        ld      (bc),a
74d7 0f        rrca    
74d8 04        inc     b
74d9 010201    ld      bc,0102h
74dc 00        nop     
74dd 02        ld      (bc),a
74de 70        ld      (hl),b
74df 0c        inc     c
74e0 00        nop     
74e1 7b        ld      a,e
74e2 02        ld      (bc),a
74e3 02        ld      (bc),a
74e4 05        dec     b
74e5 00        nop     
74e6 fc0002    call    m,0200h
74e9 0f        rrca    
74ea 04        inc     b
74eb 00        nop     
74ec 010100    ld      bc,0001h
74ef 02        ld      (bc),a
74f0 40        ld      b,b
74f1 09        add     hl,bc
74f2 00        nop     
74f3 60        ld      h,b
74f4 010205    ld      bc,0502h
74f7 00        nop     
74f8 fd00      nop     
74fa 02        ld      (bc),a
74fb 0f        rrca    
74fc 04        inc     b
74fd 010201    ld      bc,0102h
7500 00        nop     
7501 02        ld      (bc),a
7502 70        ld      (hl),b
7503 0c        inc     c
7504 00        nop     
7505 63        ld      h,e
7506 010205    ld      bc,0502h
7509 00        nop     
750a fe00      cp      00h
750c 02        ld      (bc),a
750d 0f        rrca    
750e 04        inc     b
750f 00        nop     
7510 010100    ld      bc,0001h
7513 02        ld      (bc),a
7514 40        ld      b,b
7515 07        rlca    
7516 00        nop     
7517 3a0101    ld      a,(0101h)
751a 03        inc     bc
751b 00        nop     
751c ff        rst     38h
751d 00        nop     
751e 02        ld      (bc),a
751f 0f        rrca    
7520 04        inc     b
7521 010201    ld      bc,0102h
7524 00        nop     
7525 02        ld      (bc),a
7526 70        ld      (hl),b
7527 0a        ld      a,(bc)
7528 00        nop     
7529 3c        inc     a
752a 010103    ld      bc,0301h
752d 00        nop     
752e d21f76    jp      nc,761fh
7531 cdcfff    call    0ffcfh
7534 f3        di      
7535 cd7374    call    7473h
7538 cd6375    call    7563h
753b f5        push    af
753c 0e64      ld      c,64h
753e 3002      jr      nc,7542h
7540 0e00      ld      c,00h
7542 cd1e78    call    781eh
7545 dd3600c8  ld      (ix+00h),0c8h
7549 dd7e0c    ld      a,(ix+0ch)
754c a7        and     a
754d 2005      jr      nz,7554h
754f dd7101    ld      (ix+01h),c
7552 1803      jr      7557h
7554 dd7102    ld      (ix+02h),c
7557 dd7e18    ld      a,(ix+18h)
755a cd3774    call    7437h
755d f1        pop     af
755e fb        ei      
755f cdd4ff    call    0ffd4h
7562 c9        ret     
7563 cde476    call    76e4h
7566 d8        ret     c
7567 7c        ld      a,h
7568 a7        and     a
7569 fa9e75    jp      m,759eh
756c cdf079    call    79f0h
756f cd487a    call    7a48h
7572 d8        ret     c
7573 04        inc     b
7574 05        dec     b
7575 c8        ret     z
7576 7c        ld      a,h
7577 a7        and     a
7578 fa9e75    jp      m,759eh
757b e5        push    hl
757c d5        push    de
757d c5        push    bc
757e dd7e18    ld      a,(ix+18h)
7581 cd3774    call    7437h
7584 ed5b4df3  ld      de,(0f34dh)
7588 d5        push    de
7589 010002    ld      bc,0200h
758c cd6ef3    call    0f36eh
758f dd7e17    ld      a,(ix+17h)
7592 cd3774    call    7437h
7595 e1        pop     hl
7596 c1        pop     bc
7597 d1        pop     de
7598 cda975    call    75a9h
759b e1        pop     hl
759c 1803      jr      75a1h
759e cda975    call    75a9h
75a1 d8        ret     c
75a2 05        dec     b
75a3 c8        ret     z
75a4 cda077    call    77a0h
75a7 18f5      jr      769eh
75a9 1e07      ld      e,07h
75ab cd1e78    call    781eh
75ae e5        push    hl
75af d5        push    de
75b0 c5        push    bc
75b1 010000    ld      bc,0000h
75b4 110000    ld      de,0000h
75b7 3e45      ld      a,45h
75b9 cd3c78    call    783ch
75bc 1a        ld      a,(de)
75bd 17        rla     
75be 3810      jr      c,75d0h
75c0 10fa      djnz    76bch
75c2 0d        dec     c
75c3 1a        ld      a,(de)
75c4 17        rla     
75c5 3809      jr      c,75d0h
75c7 20f3      jr      nz,76bch
75c9 37        scf     
75ca 1812      jr      75deh
75cc 1a        ld      a,(de)
75cd 17        rla     
75ce 30fc      jr      nc,76cch
75d0 e640      and     40h
75d2 2807      jr      z,75dbh
75d4 1c        inc     e
75d5 7e        ld      a,(hl)
75d6 12        ld      (de),a
75d7 1d        dec     e
75d8 23        inc     hl
75d9 18f1      jr      76cch
75db cd6a78    call    786ah
75de c1        pop     bc
75df d1        pop     de
75e0 e1        pop     hl
75e1 da1876    jp      c,7618h
75e4 dd7e0f    ld      a,(ix+0fh)
75e7 e67f      and     7fh
75e9 c8        ret     z
75ea cb4f      bit     1,a
75ec 202e      jr      nz,761ch
75ee f5        push    af
75ef dd7e06    ld      a,(ix+06h)
75f2 e601      and     01h
75f4 3c        inc     a
75f5 2f        cpl     
75f6 dda60b    and     (ix+0bh)
75f9 dd770b    ld      (ix+0bh),a
75fc cde277    call    77e2h
75ff f1        pop     af
7600 1d        dec     e
7601 c2ab75    jp      nz,75abh
7604 37        scf     
7605 5f        ld      e,a
7606 cb63      bit     4,e
7608 3e0a      ld      a,0ah
760a c0        ret     nz
760b cb53      bit     2,e
760d 3e08      ld      a,08h
760f c0        ret     nz
7610 cb6b      bit     5,e
7612 3e04      ld      a,04h
7614 c0        ret     nz
7615 3e0c      ld      a,0ch
7617 c9        ret     
7618 3e02      ld      a,02h
761a 37        scf     
761b c9        ret     
761c af        xor     a
761d 37        scf     
761e c9        ret     
761f cdcfff    call    0ffcfh
7622 f3        di      
7623 cd7374    call    7473h
7626 cd2c76    call    762ch
7629 c33b75    jp      753bh
762c cde476    call    76e4h
762f d8        ret     c
7630 7c        ld      a,h
7631 a7        and     a
7632 fa6f76    jp      m,766fh
7635 cdf079    call    79f0h
7638 cd237a    call    7a23h
763b cd487a    call    7a48h
763e d8        ret     c
763f 04        inc     b
7640 05        dec     b
7641 c8        ret     z
7642 7c        ld      a,h
7643 a7        and     a
7644 fa6f76    jp      m,766fh
7647 e5        push    hl
7648 2a4df3    ld      hl,(0f34dh)
764b cd7a76    call    767ah
764e e1        pop     hl
764f d8        ret     c
7650 c5        push    bc
7651 d5        push    de
7652 e5        push    hl
7653 dd7e18    ld      a,(ix+18h)
7656 cd3774    call    7437h
7659 eb        ex      de,hl
765a 2a4df3    ld      hl,(0f34dh)
765d 010002    ld      bc,0200h
7660 cd6ef3    call    0f36eh
7663 dd7e17    ld      a,(ix+17h)
7666 cd3774    call    7437h
7669 e1        pop     hl
766a d1        pop     de
766b c1        pop     bc
766c a7        and     a
766d 1804      jr      7673h
766f cd7a76    call    767ah
7672 d8        ret     c
7673 05        dec     b
7674 c8        ret     z
7675 cda077    call    77a0h
7678 18f5      jr      776fh
767a 1e07      ld      e,07h
767c cd1e78    call    781eh
767f e5        push    hl
7680 d5        push    de
7681 c5        push    bc
7682 010000    ld      bc,0000h
7685 110000    ld      de,0000h
7688 3e66      ld      a,66h
768a cd3c78    call    783ch
768d 1a        ld      a,(de)
768e 17        rla     
768f 3810      jr      c,76a1h
7691 10fa      djnz    778dh
7693 0d        dec     c
7694 1a        ld      a,(de)
7695 17        rla     
7696 3809      jr      c,76a1h
7698 20f3      jr      nz,778dh
769a 37        scf     
769b 1812      jr      76afh
769d 1a        ld      a,(de)
769e 17        rla     
769f 30fc      jr      nc,779dh
76a1 e640      and     40h
76a3 2807      jr      z,76ach
76a5 1c        inc     e
76a6 1a        ld      a,(de)
76a7 77        ld      (hl),a
76a8 23        inc     hl
76a9 1d        dec     e
76aa 18f1      jr      779dh
76ac cd6a78    call    786ah
76af c1        pop     bc
76b0 d1        pop     de
76b1 e1        pop     hl
76b2 dae076    jp      c,76e0h
76b5 dd7e0f    ld      a,(ix+0fh)
76b8 e67f      and     7fh
76ba c8        ret     z
76bb f5        push    af
76bc dd7e06    ld      a,(ix+06h)
76bf e601      and     01h
76c1 3c        inc     a
76c2 2f        cpl     
76c3 dda60b    and     (ix+0bh)
76c6 dd770b    ld      (ix+0bh),a
76c9 cde277    call    77e2h
76cc f1        pop     af
76cd 1d        dec     e
76ce c27c76    jp      nz,767ch
76d1 37        scf     
76d2 5f        ld      e,a
76d3 cb53      bit     2,e
76d5 3e08      ld      a,08h
76d7 c0        ret     nz
76d8 cb6b      bit     5,e
76da 3e04      ld      a,04h
76dc c0        ret     nz
76dd 3e0c      ld      a,0ch
76df c9        ret     
76e0 3e02      ld      a,02h
76e2 37        scf     
76e3 c9        ret     
76e4 f5        push    af
76e5 c5        push    bc
76e6 e5        push    hl
76e7 cdc25f    call    5fc2h
76ea e1        pop     hl
76eb c1        pop     bc
76ec f1        pop     af
76ed fe02      cp      02h
76ef 3804      jr      c,76f5h
76f1 3e0c      ld      a,0ch
76f3 37        scf     
76f4 c9        ret     
76f5 f5        push    af
76f6 79        ld      a,c
76f7 fef8      cp      0f8h
76f9 3003      jr      nc,76feh
76fb f1        pop     af
76fc 18f3      jr      77f1h
76fe e3        ex      (sp),hl
76ff e5        push    hl
7700 c5        push    bc
7701 cb49      bit     1,c
7703 4b        ld      c,e
7704 42        ld      b,d
7705 110800    ld      de,0008h
7708 2001      jr      nz,770bh
770a 13        inc     de
770b cd2f49    call    492fh
770e 7d        ld      a,l
770f 3c        inc     a
7710 dd7709    ld      (ix+09h),a
7713 69        ld      l,c
7714 c1        pop     bc
7715 f1        pop     af
7716 67        ld      h,a
7717 dd7e05    ld      a,(ix+05h)
771a 3d        dec     a
771b 2806      jr      z,7723h
771d 7c        ld      a,h
771e b7        or      a
771f 2802      jr      z,7723h
7721 3e11      ld      a,11h
7723 c61c      add     a,1ch
7725 f5        push    af
7726 e601      and     01h
7728 cb41      bit     0,c
772a 2806      jr      z,7732h
772c cb3d      srl     l
772e 3002      jr      nc,7732h
7730 f604      or      04h
7732 dd7706    ld      (ix+06h),a
7735 f5        push    af
7736 cb3f      srl     a
7738 cb3f      srl     a
773a e601      and     01h
773c dd7708    ld      (ix+08h),a
773f f1        pop     af
7740 57        ld      d,a
7741 79        ld      a,c
7742 0f        rrca    
7743 0f        rrca    
7744 e6c0      and     0c0h
7746 b2        or      d
7747 57        ld      d,a
7748 f1        pop     af
7749 320010    ld      (1000h),a
774c dd770c    ld      (ix+0ch),a
774f dd7e00    ld      a,(ix+00h)
7752 a7        and     a
7753 dd3600ff  ld      (ix+00h),0ffh
7757 200a      jr      nz,7763h
7759 e5        push    hl
775a 210000    ld      hl,0000h
775d 2b        dec     hl
775e 7d        ld      a,l
775f b4        or      h
7760 20fb      jr      nz,785dh
7762 e1        pop     hl
7763 4d        ld      c,l
7764 dd7507    ld      (ix+07h),l
7767 dd7e05    ld      a,(ix+05h)
776a 3d        dec     a
776b 280d      jr      z,777ah
776d dd7e03    ld      a,(ix+03h)
7770 bc        cp      h
7771 2828      jr      z,779bh
7773 ee01      xor     01h
7775 dd7703    ld      (ix+03h),a
7778 1821      jr      779bh
777a 7c        ld      a,h
777b ddbe04    cp      (ix+04h)
777e dd7704    ld      (ix+04h),a
7781 2818      jr      z,779bh
7783 dde5      push    ix
7785 d5        push    de
7786 c5        push    bc
7787 dd7e18    ld      a,(ix+18h)
778a cd3774    call    7437h
778d cd5a62    call    625ah
7790 c1        pop     bc
7791 d1        pop     de
7792 dde1      pop     ix
7794 f3        di      
7795 dd7e17    ld      a,(ix+17h)
7798 cd3774    call    7437h
779b cde277    call    77e2h
779e e1        pop     hl
779f c9        ret     
77a0 24        inc     h
77a1 24        inc     h
77a2 dd7e09    ld      a,(ix+09h)
77a5 3c        inc     a
77a6 dd7709    ld      (ix+09h),a
77a9 cb7a      bit     7,d
77ab 2003      jr      nz,77b0h
77ad fe0a      cp      0ah
77af d8        ret     c
77b0 fe09      cp      09h
77b2 d8        ret     c
77b3 3e01      ld      a,01h
77b5 dd7709    ld      (ix+09h),a
77b8 cb72      bit     6,d
77ba 2812      jr      z,77ceh
77bc cb52      bit     2,d
77be 200e      jr      nz,77ceh
77c0 cbd2      set     2,d
77c2 7a        ld      a,d
77c3 e60f      and     0fh
77c5 dd7706    ld      (ix+06h),a
77c8 3e01      ld      a,01h
77ca dd7708    ld      (ix+08h),a
77cd c9        ret     
77ce cb92      res     2,d
77d0 7a        ld      a,d
77d1 e60f      and     0fh
77d3 dd7706    ld      (ix+06h),a
77d6 af        xor     a
77d7 dd7708    ld      (ix+08h),a
77da 0c        inc     c
77db dd7107    ld      (ix+07h),c
77de cde277    call    77e2h
77e1 c9        ret     
77e2 cd1e78    call    781eh
77e5 dd7e06    ld      a,(ix+06h)
77e8 e601      and     01h
77ea 3c        inc     a
77eb dda60b    and     (ix+0bh)
77ee 201a      jr      nz,780ah
77f0 dd7e06    ld      a,(ix+06h)
77f3 e601      and     01h
77f5 3c        inc     a
77f6 ddb60b    or      (ix+0bh)
77f9 dd770b    ld      (ix+0bh),a
77fc 3e07      ld      a,07h
77fe cd5b78    call    785bh
7801 dd7e06    ld      a,(ix+06h)
7804 cd5b78    call    785bh
7807 cd8c78    call    788ch
780a 3e0f      ld      a,0fh
780c cd5b78    call    785bh
780f dd7e06    ld      a,(ix+06h)
7812 cd5b78    call    785bh
7815 dd7e07    ld      a,(ix+07h)
7818 cd5b78    call    785bh
781b c38c78    jp      788ch
781e 3a0000    ld      a,(0000h)
7821 e6d0      and     0d0h
7823 ee80      xor     80h
7825 c8        ret     z
7826 af        xor     a
7827 dd770b    ld      (ix+0bh),a
782a 320010    ld      (1000h),a
782d cd3778    call    7837h
7830 dd7e0c    ld      a,(ix+0ch)
7833 320010    ld      (1000h),a
7836 c9        ret     
7837 e3        ex      (sp),hl
7838 e3        ex      (sp),hl
7839 e3        ex      (sp),hl
783a e3        ex      (sp),hl
783b c9        ret     
783c c5        push    bc
783d 0606      ld      b,06h
783f dde5      push    ix
7841 cd5b78    call    785bh
7844 dd7e06    ld      a,(ix+06h)
7847 dd23      inc     ix
7849 10f6      djnz    7941h
784b dde1      pop     ix
784d c1        pop     bc
784e dd7e09    ld      a,(ix+09h)
7851 cd5b78    call    785bh
7854 3e1b      ld      a,1bh
7856 cd5b78    call    785bh
7859 3eff      ld      a,0ffh
785b f5        push    af
785c 3a0000    ld      a,(0000h)
785f e6e0      and     0e0h
7861 fe80      cp      80h
7863 20f7      jr      nz,795ch
7865 f1        pop     af
7866 320100    ld      (0001h),a
7869 c9        ret     
786a dde5      push    ix
786c 3a0000    ld      a,(0000h)
786f e6c0      and     0c0h
7871 fec0      cp      0c0h
7873 20f7      jr      nz,796ch
7875 3a0100    ld      a,(0001h)
7878 dd770e    ld      (ix+0eh),a
787b dd23      inc     ix
787d cd3778    call    7837h
7880 3a0000    ld      a,(0000h)
7883 e6c0      and     0c0h
7885 fe80      cp      80h
7887 20e3      jr      nz,796ch
7889 dde1      pop     ix
788b c9        ret     
788c c5        push    bc
788d 0620      ld      b,20h
788f 3e08      ld      a,08h
7891 cd5b78    call    785bh
7894 cd6a78    call    786ah
7897 dd7e0e    ld      a,(ix+0eh)
789a e6f0      and     0f0h
789c fe20      cp      20h
789e 2809      jr      z,78a9h
78a0 cd3778    call    7837h
78a3 0b        dec     bc
78a4 78        ld      a,b
78a5 b1        or      c
78a6 20e7      jr      nz,798fh
78a8 37        scf     
78a9 c1        pop     bc
78aa c9        ret     
78ab 0600      ld      b,00h
78ad cd0574    call    7405h
78b0 f5        push    af
78b1 0601      ld      b,01h
78b3 cd0574    call    7405h
78b6 cd3774    call    7437h
78b9 af        xor     a
78ba 320010    ld      (1000h),a
78bd cd3778    call    7837h
78c0 3e0c      ld      a,0ch
78c2 320010    ld      (1000h),a
78c5 3e03      ld      a,03h
78c7 cd5b78    call    785bh
78ca 3e9f      ld      a,9fh
78cc cd5b78    call    785bh
78cf 3e03      ld      a,03h
78d1 cd5b78    call    785bh
78d4 3e1c      ld      a,1ch
78d6 320010    ld      (1000h),a
78d9 3e07      ld      a,07h
78db cd5b78    call    785bh
78de 3e00      ld      a,00h
78e0 cd5b78    call    785bh
78e3 210000    ld      hl,0000h
78e6 cd3778    call    7837h
78e9 2b        dec     hl
78ea 7c        ld      a,h
78eb b5        or      l
78ec 20f8      jr      nz,79e6h
78ee 3e0c      ld      a,0ch
78f0 320010    ld      (1000h),a
78f3 f1        pop     af
78f4 cd3774    call    7437h
78f7 c9        ret     
78f8 c5        push    bc
78f9 d5        push    de
78fa e5        push    hl
78fb 3e0c      ld      a,0ch
78fd dd770c    ld      (ix+0ch),a
7900 5f        ld      e,a
7901 0601      ld      b,01h
7903 cd0574    call    7405h
7906 210010    ld      hl,1000h
7909 cd1400    call    0014h
790c e1        pop     hl
790d d1        pop     de
790e c1        pop     bc
790f c9        ret     
7910 cd7374    call    7473h
7913 c5        push    bc
7914 f5        push    af
7915 3e2d      ld      a,2dh
7917 320010    ld      (1000h),a
791a cd8c78    call    788ch
791d 3e07      ld      a,07h
791f cd5b78    call    785bh
7922 3e01      ld      a,01h
7924 cd5b78    call    785bh
7927 cd8c78    call    788ch
792a 2e01      ld      l,01h
792c 3802      jr      c,7930h
792e 2e02      ld      l,02h
7930 dd7505    ld      (ix+05h),l
7933 3e0c      ld      a,0ch
7935 320010    ld      (1000h),a
7938 f1        pop     af
7939 2802      jr      z,793dh
793b 2e02      ld      l,02h
793d e5        push    hl
793e f5        push    af
793f cdc25f    call    5fc2h
7942 dd7e18    ld      a,(ix+18h)
7945 cd3774    call    7437h
7948 f1        pop     af
7949 e1        pop     hl
794a c1        pop     bc
794b c9        ret     
794c cdc25f    call    5fc2h
794f dd5605    ld      d,(ix+05h)
7952 af        xor     a
7953 0619      ld      b,19h
7955 77        ld      (hl),a
7956 23        inc     hl
7957 10fc      djnz    7a55h
7959 dd7205    ld      (ix+05h),d
795c dd360a02  ld      (ix+0ah),02h
7960 216679    ld      hl,7966h
7963 c3f65f    jp      5ff6h
7966 f5        push    af
7967 cdc25f    call    5fc2h
796a 7e        ld      a,(hl)
796b a7        and     a
796c 2818      jr      z,7986h
796e feff      cp      0ffh
7970 2814      jr      z,7986h
7972 3d        dec     a
7973 77        ld      (hl),a
7974 2010      jr      nz,7986h
7976 3e0c      ld      a,0ch
7978 5f        ld      e,a
7979 0601      ld      b,01h
797b cd0574    call    7405h
797e e5        push    hl
797f 210010    ld      hl,1000h
7982 cd1400    call    0014h
7985 e1        pop     hl
7986 23        inc     hl
7987 7e        ld      a,(hl)
7988 a7        and     a
7989 2801      jr      z,798ch
798b 35        dec     (hl)
798c 23        inc     hl
798d 7e        ld      a,(hl)
798e a7        and     a
798f 2801      jr      z,7992h
7991 35        dec     (hl)
7992 f1        pop     af
7993 c32760    jp      6027h
7996 fb        ei      
7997 e5        push    hl
7998 c5        push    bc
7999 f5        push    af
799a cdc25f    call    5fc2h
799d f1        pop     af
799e c1        pop     bc
799f e1        pop     hl
79a0 a7        and     a
79a1 dd4602    ld      b,(ix+02h)
79a4 2003      jr      nz,79a9h
79a6 dd4601    ld      b,(ix+01h)
79a9 04        inc     b
79aa 05        dec     b
79ab 0601      ld      b,01h
79ad c0        ret     nz
79ae c5        push    bc
79af e5        push    hl
79b0 110100    ld      de,0001h
79b3 2a4df3    ld      hl,(0f34dh)
79b6 cd2e75    call    752eh
79b9 3817      jr      c,79d2h
79bb 2a4df3    ld      hl,(0f34dh)
79be 46        ld      b,(hl)
79bf e1        pop     hl
79c0 c5        push    bc
79c1 cdd579    call    79d5h
79c4 3e0c      ld      a,0ch
79c6 380a      jr      c,79d2h
79c8 f1        pop     af
79c9 c1        pop     bc
79ca b9        cp      c
79cb 37        scf     
79cc 3f        ccf     
79cd 06ff      ld      b,0ffh
79cf c0        ret     nz
79d0 04        inc     b
79d1 c9        ret     
79d2 d1        pop     de
79d3 d1        pop     de
79d4 c9        ret     
79d5 fb        ei      
79d6 eb        ex      de,hl
79d7 13        inc     de
79d8 78        ld      a,b
79d9 d6f8      sub     0f8h
79db d8        ret     c
79dc 6f        ld      l,a
79dd 2600      ld      h,00h
79df 29        add     hl,hl
79e0 4d        ld      c,l
79e1 44        ld      b,h
79e2 29        add     hl,hl
79e3 29        add     hl,hl
79e4 29        add     hl,hl
79e5 09        add     hl,bc
79e6 019e74    ld      bc,749eh
79e9 09        add     hl,bc
79ea 011200    ld      bc,0012h
79ed edb0      ldir    
79ef c9        ret     
79f0 e5        push    hl
79f1 d5        push    de
79f2 c5        push    bc
79f3 21847a    ld      hl,7a84h
79f6 ed5b4df3  ld      de,(0f34dh)
79fa 01b501    ld      bc,01b5h
79fd edb0      ldir    
79ff 214e7a    ld      hl,7a4eh
7a02 5e        ld      e,(hl)
7a03 23        inc     hl
7a04 56        ld      d,(hl)
7a05 23        inc     hl
7a06 7b        ld      a,e
7a07 b2        or      d
7a08 2815      jr      z,7a1fh
7a0a e5        push    hl
7a0b 2a4df3    ld      hl,(0f34dh)
7a0e 19        add     hl,de
7a0f 23        inc     hl
7a10 4e        ld      c,(hl)
7a11 23        inc     hl
7a12 46        ld      b,(hl)
7a13 eb        ex      de,hl
7a14 2a4df3    ld      hl,(0f34dh)
7a17 09        add     hl,bc
7a18 eb        ex      de,hl
7a19 72        ld      (hl),d
7a1a 2b        dec     hl
7a1b 73        ld      (hl),e
7a1c e1        pop     hl
7a1d 18e3      jr      7b02h
7a1f c1        pop     bc
7a20 d1        pop     de
7a21 e1        pop     hl
7a22 c9        ret     
7a23 e5        push    hl
7a24 d5        push    de
7a25 c5        push    bc
7a26 216a7a    ld      hl,7a6ah
7a29 5e        ld      e,(hl)
7a2a 23        inc     hl
7a2b 56        ld      d,(hl)
7a2c 7b        ld      a,e
7a2d b2        or      d
7a2e 2814      jr      z,7a44h
7a30 e5        push    hl
7a31 2a4df3    ld      hl,(0f34dh)
7a34 19        add     hl,de
7a35 eb        ex      de,hl
7a36 e1        pop     hl
7a37 23        inc     hl
7a38 4e        ld      c,(hl)
7a39 23        inc     hl
7a3a 46        ld      b,(hl)
7a3b 23        inc     hl
7a3c e5        push    hl
7a3d eb        ex      de,hl
7a3e 71        ld      (hl),c
7a3f 23        inc     hl
7a40 70        ld      (hl),b
7a41 e1        pop     hl
7a42 18e5      jr      7b29h
7a44 c1        pop     bc
7a45 d1        pop     de
7a46 e1        pop     hl
7a47 c9        ret     
7a48 e5        push    hl
7a49 2a4df3    ld      hl,(0f34dh)
7a4c e3        ex      (sp),hl
7a4d c9        ret     
7a4e 29        add     hl,hl
7a4f 00        nop     
7a50 2e00      ld      l,00h
7a52 3c        inc     a
7a53 00        nop     
7a54 5e        ld      e,(hl)
7a55 00        nop     
7a56 64        ld      h,h
7a57 00        nop     
7a58 71        ld      (hl),c
7a59 00        nop     
7a5a 88        adc     a,b
7a5b 00        nop     
7a5c 1b        dec     de
7a5d 015601    ld      bc,0156h
7a60 6a        ld      l,d
7a61 017a01    ld      bc,017ah
7a64 7f        ld      a,a
7a65 01a601    ld      bc,01a6h
7a68 00        nop     
7a69 00        nop     
7a6a 3a003e    ld      a,(3e00h)
7a6d 66        ld      h,(hl)
7a6e 58        ld      e,b
7a6f 00        nop     
7a70 1a        ld      a,(de)
7a71 77        ld      (hl),a
7a72 76        halt    
7a73 00        nop     
7a74 00        nop     
7a75 00        nop     
7a76 78        ld      a,b
7a77 00        nop     
7a78 00        nop     
7a79 00        nop     
7a7a 91        sub     c
7a7b 00        nop     
7a7c 00        nop     
7a7d 00        nop     
7a7e 93        sub     e
7a7f 00        nop     
7a80 00        nop     
7a81 00        nop     
7a82 00        nop     
7a83 00        nop     
7a84 dde5      push    ix
7a86 e5        push    hl
7a87 d5        push    de
7a88 c5        push    bc
7a89 dd7e18    ld      a,(ix+18h)
7a8c cd3774    call    7437h
7a8f dde5      push    ix
7a91 3a42f3    ld      a,(0f342h)
7a94 2640      ld      h,40h
7a96 cd2400    call    0024h
7a99 dde1      pop     ix
7a9b dd7e17    ld      a,(ix+17h)
7a9e 2680      ld      h,80h
7aa0 cd2400    call    0024h
7aa3 c1        pop     bc
7aa4 d1        pop     de
7aa5 e1        pop     hl
7aa6 dde1      pop     ix
7aa8 2b        dec     hl
7aa9 7c        ld      a,h
7aaa c602      add     a,02h
7aac 23        inc     hl
7aad faaf00    jp      m,00afh
7ab0 1e07      ld      e,07h
7ab2 cd4701    call    0147h
7ab5 e5        push    hl
7ab6 d5        push    de
7ab7 c5        push    bc
7ab8 010000    ld      bc,0000h
7abb 110080    ld      de,8000h
7abe 3e45      ld      a,45h
7ac0 cd6501    call    0165h
7ac3 1a        ld      a,(de)
7ac4 17        rla     
7ac5 3810      jr      c,7ad7h
7ac7 10fa      djnz    7bc3h
7ac9 0d        dec     c
7aca 1a        ld      a,(de)
7acb 17        rla     
7acc 3809      jr      c,7ad7h
7ace 20f3      jr      nz,7bc3h
7ad0 37        scf     
7ad1 1812      jr      7ae5h
7ad3 1a        ld      a,(de)
7ad4 17        rla     
7ad5 30fc      jr      nc,7bd3h
7ad7 e640      and     40h
7ad9 2807      jr      z,7ae2h
7adb 1c        inc     e
7adc 7e        ld      a,(hl)
7add 12        ld      (de),a
7ade 1d        dec     e
7adf 23        inc     hl
7ae0 18f1      jr      7bd3h
7ae2 cd9301    call    0193h
7ae5 c1        pop     bc
7ae6 d1        pop     de
7ae7 e1        pop     hl
7ae8 daa700    jp      c,00a7h
7aeb dd7e0f    ld      a,(ix+0fh)
7aee e67f      and     7fh
7af0 2008      jr      nz,7afah
7af2 05        dec     b
7af3 283e      jr      z,7b33h
7af5 cddd00    call    00ddh
7af8 18ae      jr      7ba8h
7afa cb4f      bit     1,a
7afc 2032      jr      nz,7b30h
7afe f5        push    af
7aff dd7e06    ld      a,(ix+06h)
7b02 e601      and     01h
7b04 3c        inc     a
7b05 2f        cpl     
7b06 dda60b    and     (ix+0bh)
7b09 dd770b    ld      (ix+0bh),a
7b0c cd1f01    call    011fh
7b0f f1        pop     af
7b10 1d        dec     e
7b11 209f      jr      nz,7bb2h
7b13 37        scf     
7b14 5f        ld      e,a
7b15 cb63      bit     4,e
7b17 3e0a      ld      a,0ah
7b19 2017      jr      nz,7b32h
7b1b cb53      bit     2,e
7b1d 3e08      ld      a,08h
7b1f 2011      jr      nz,7b32h
7b21 cb6b      bit     5,e
7b23 3e04      ld      a,04h
7b25 200b      jr      nz,7b32h
7b27 3e0c      ld      a,0ch
7b29 1807      jr      7b32h
7b2b 3e02      ld      a,02h
7b2d 37        scf     
7b2e 1802      jr      7b32h
7b30 af        xor     a
7b31 37        scf     
7b32 37        scf     
7b33 dde5      push    ix
7b35 e5        push    hl
7b36 d5        push    de
7b37 c5        push    bc
7b38 f5        push    af
7b39 dde5      push    ix
7b3b dd7e16    ld      a,(ix+16h)
7b3e 2680      ld      h,80h
7b40 cd2400    call    0024h
7b43 cd68f3    call    0f368h
7b46 dde1      pop     ix
7b48 dde5      push    ix
7b4a dd7e17    ld      a,(ix+17h)
7b4d 2640      ld      h,40h
7b4f cd2400    call    0024h
7b52 dde1      pop     ix
7b54 dd7e17    ld      a,(ix+17h)
7b57 cd3774    call    7437h
7b5a f1        pop     af
7b5b c1        pop     bc
7b5c d1        pop     de
7b5d e1        pop     hl
7b5e dde1      pop     ix
7b60 c9        ret     
7b61 24        inc     h
7b62 24        inc     h
7b63 dd7e09    ld      a,(ix+09h)
7b66 3c        inc     a
7b67 dd7709    ld      (ix+09h),a
7b6a cb7a      bit     7,d
7b6c 2003      jr      nz,7b71h
7b6e fe0a      cp      0ah
7b70 d8        ret     c
7b71 fe09      cp      09h
7b73 d8        ret     c
7b74 3e01      ld      a,01h
7b76 dd7709    ld      (ix+09h),a
7b79 cb72      bit     6,d
7b7b 2812      jr      z,7b8fh
7b7d cb52      bit     2,d
7b7f 200e      jr      nz,7b8fh
7b81 cbd2      set     2,d
7b83 7a        ld      a,d
7b84 e60f      and     0fh
7b86 dd7706    ld      (ix+06h),a
7b89 3e01      ld      a,01h
7b8b dd7708    ld      (ix+08h),a
7b8e c9        ret     
7b8f cb92      res     2,d
7b91 7a        ld      a,d
7b92 e60f      and     0fh
7b94 dd7706    ld      (ix+06h),a
7b97 af        xor     a
7b98 dd7708    ld      (ix+08h),a
7b9b 0c        inc     c
7b9c dd7107    ld      (ix+07h),c
7b9f cd1f01    call    011fh
7ba2 c9        ret     
7ba3 c5        push    bc
7ba4 d5        push    de
7ba5 e5        push    hl
7ba6 dd7e17    ld      a,(ix+17h)
7ba9 2640      ld      h,40h
7bab cd2400    call    0024h
7bae dd7e17    ld      a,(ix+17h)
7bb1 cd3774    call    7437h
7bb4 e1        pop     hl
7bb5 cde277    call    77e2h
7bb8 e5        push    hl
7bb9 dd7e18    ld      a,(ix+18h)
7bbc cd3774    call    7437h
7bbf 3a42f3    ld      a,(0f342h)
7bc2 2640      ld      h,40h
7bc4 cd2400    call    0024h
7bc7 e1        pop     hl
7bc8 d1        pop     de
7bc9 c1        pop     bc
7bca c9        ret     
7bcb 3a0080    ld      a,(8000h)
7bce e6d0      and     0d0h
7bd0 ee80      xor     80h
7bd2 c8        ret     z
7bd3 af        xor     a
7bd4 dd770b    ld      (ix+0bh),a
7bd7 320090    ld      (9000h),a
7bda cd6001    call    0160h
7bdd dd7e0c    ld      a,(ix+0ch)
7be0 320090    ld      (9000h),a
7be3 c9        ret     
7be4 e3        ex      (sp),hl
7be5 e3        ex      (sp),hl
7be6 e3        ex      (sp),hl
7be7 e3        ex      (sp),hl
7be8 c9        ret     
7be9 c5        push    bc
7bea 0606      ld      b,06h
7bec dde5      push    ix
7bee cd8401    call    0184h
7bf1 dd7e06    ld      a,(ix+06h)
7bf4 dd23      inc     ix
7bf6 10f6      djnz    7ceeh
7bf8 dde1      pop     ix
7bfa c1        pop     bc
7bfb dd7e09    ld      a,(ix+09h)
7bfe cd8401    call    0184h
7c01 3e1b      ld      a,1bh
7c03 cd8401    call    0184h
7c06 3eff      ld      a,0ffh
7c08 f5        push    af
7c09 3a0080    ld      a,(8000h)
7c0c e6e0      and     0e0h
7c0e fe80      cp      80h
7c10 20f7      jr      nz,7d09h
7c12 f1        pop     af
7c13 320180    ld      (8001h),a
7c16 c9        ret     
7c17 dde5      push    ix
7c19 3a0080    ld      a,(8000h)
7c1c e6c0      and     0c0h
7c1e fec0      cp      0c0h
7c20 20f7      jr      nz,7d19h
7c22 3a0180    ld      a,(8001h)
7c25 dd770e    ld      (ix+0eh),a
7c28 dd23      inc     ix
7c2a cd6001    call    0160h
7c2d 3a0080    ld      a,(8000h)
7c30 e6c0      and     0c0h
7c32 fe80      cp      80h
7c34 20e3      jr      nz,7d19h
7c36 dde1      pop     ix
7c38 c9        ret     
7c39 213d7c    ld      hl,7c3dh
7c3c c9        ret     
7c3d 0d        dec     c
7c3e 0a        ld      a,(bc)
7c3f 312920    ld      sp,2029h
7c42 33        inc     sp
7c43 2e35      ld      l,35h
7c45 222020    ld      (2020h),hl
7c48 53        ld      d,e
7c49 69        ld      l,c
7c4a 6e        ld      l,(hl)
7c4b 67        ld      h,a
7c4c 6c        ld      l,h
7c4d 65        ld      h,l
7c4e 2053      jr      nz,7ca3h
7c50 69        ld      l,c
7c51 64        ld      h,h
7c52 65        ld      h,l
7c53 2028      jr      nz,7c7dh
7c55 33        inc     sp
7c56 3630      ld      (hl),30h
7c58 204b      jr      nz,7ca5h
7c5a 62        ld      h,d
7c5b 29        add     hl,hl
7c5c 0d        dec     c
7c5d 0a        ld      a,(bc)
7c5e 322920    ld      (2029h),a
7c61 33        inc     sp
7c62 2e35      ld      l,35h
7c64 222020    ld      (2020h),hl
7c67 44        ld      b,h
7c68 6f        ld      l,a
7c69 75        ld      (hl),l
7c6a 62        ld      h,d
7c6b 6c        ld      l,h
7c6c 65        ld      h,l
7c6d 2053      jr      nz,7cc2h
7c6f 69        ld      l,c
7c70 64        ld      h,h
7c71 65        ld      h,l
7c72 2028      jr      nz,7c9ch
7c74 37        scf     
7c75 323020    ld      (2030h),a
7c78 4b        ld      c,e
7c79 62        ld      h,d
7c7a 29        add     hl,hl
7c7b 0d        dec     c
7c7c 0a        ld      a,(bc)
7c7d 33        inc     sp
7c7e 29        add     hl,hl
7c7f 2035      jr      nz,7cb6h
7c81 2e32      ld      l,32h
7c83 35        dec     (hl)
7c84 222044    ld      (4420h),hl
7c87 6f        ld      l,a
7c88 75        ld      (hl),l
7c89 62        ld      h,d
7c8a 6c        ld      l,h
7c8b 65        ld      h,l
7c8c 2053      jr      nz,7ce1h
7c8e 69        ld      l,c
7c8f 64        ld      h,h
7c90 65        ld      h,l
7c91 2028      jr      nz,7cbbh
7c93 33        inc     sp
7c94 3630      ld      (hl),30h
7c96 204b      jr      nz,7ce3h
7c98 62        ld      h,d
7c99 29        add     hl,hl
7c9a 0d        dec     c
7c9b 0a        ld      a,(bc)
7c9c 0d        dec     c
7c9d 0a        ld      a,(bc)
7c9e 00        nop     
7c9f cdcfff    call    0ffcfh
7ca2 f3        di      
7ca3 cd7374    call    7473h
7ca6 3d        dec     a
7ca7 2806      jr      z,7cafh
7ca9 cb47      bit     0,a
7cab 2002      jr      nz,7cafh
7cad 3e05      ld      a,05h
7caf c6f8      add     a,0f8h
7cb1 4f        ld      c,a
7cb2 f5        push    af
7cb3 7a        ld      a,d
7cb4 fe02      cp      02h
7cb6 3806      jr      c,7cbeh
7cb8 f1        pop     af
7cb9 3e0c      ld      a,0ch
7cbb c38d7d    jp      7d8dh
7cbe 110000    ld      de,0000h
7cc1 cde476    call    76e4h
7cc4 c1        pop     bc
7cc5 3e06      ld      a,06h
7cc7 da8d7d    jp      c,7d8dh
7cca 78        ld      a,b
7ccb dd770d    ld      (ix+0dh),a
7cce 3e01      ld      a,01h
7cd0 08        ex      af,af'
7cd1 d5        push    de
7cd2 dde5      push    ix
7cd4 e1        pop     hl
7cd5 010700    ld      bc,0007h
7cd8 09        add     hl,bc
7cd9 e5        push    hl
7cda 0e01      ld      c,01h
7cdc 3e4d      ld      a,4dh
7cde cd5b78    call    785bh
7ce1 7a        ld      a,d
7ce2 cd5b78    call    785bh
7ce5 3e02      ld      a,02h
7ce7 cd5b78    call    785bh
7cea 3e09      ld      a,09h
7cec cd5b78    call    785bh
7cef 3e52      ld      a,52h
7cf1 cd5b78    call    785bh
7cf4 3ee5      ld      a,0e5h
7cf6 110000    ld      de,0000h
7cf9 cd5b78    call    785bh
7cfc 0604      ld      b,04h
7cfe 08        ex      af,af'
7cff dd7709    ld      (ix+09h),a
7d02 3c        inc     a
7d03 08        ex      af,af'
7d04 e1        pop     hl
7d05 e5        push    hl
7d06 1a        ld      a,(de)
7d07 17        rla     
7d08 30fc      jr      nc,7e06h
7d0a e640      and     40h
7d0c 2809      jr      z,7d17h
7d0e 7e        ld      a,(hl)
7d0f 1c        inc     e
7d10 12        ld      (de),a
7d11 1d        dec     e
7d12 23        inc     hl
7d13 10f1      djnz    7e06h
7d15 18e5      jr      7dfch
7d17 e1        pop     hl
7d18 d1        pop     de
7d19 cd6a78    call    786ah
7d1c ddcb0f4e  bit     1,(ix+0fh)
7d20 2069      jr      nz,7d8bh
7d22 cb52      bit     2,d
7d24 2019      jr      nz,7d3fh
7d26 dd7e0d    ld      a,(ix+0dh)
7d29 fef8      cp      0f8h
7d2b 2812      jr      z,7d3fh
7d2d cbd2      set     2,d
7d2f dd7206    ld      (ix+06h),d
7d32 dd360801  ld      (ix+08h),01h
7d36 dd360901  ld      (ix+09h),01h
7d3a 3e01      ld      a,01h
7d3c 08        ex      af,af'
7d3d 1892      jr      7dd1h
7d3f 0e27      ld      c,27h
7d41 dd7e0d    ld      a,(ix+0dh)
7d44 fefd      cp      0fdh
7d46 2802      jr      z,7d4ah
7d48 0e4f      ld      c,4fh
7d4a dd7e07    ld      a,(ix+07h)
7d4d b9        cp      c
7d4e 2841      jr      z,7d91h
7d50 3c        inc     a
7d51 dd7707    ld      (ix+07h),a
7d54 dbaa      in      a,(0aah)
7d56 e6f0      and     0f0h
7d58 c607      add     a,07h
7d5a d3aa      out     (0aah),a
7d5c dba9      in      a,(0a9h)
7d5e e610      and     10h
7d60 200b      jr      nz,7d6dh
7d62 dbaa      in      a,(0aah)
7d64 3d        dec     a
7d65 d3aa      out     (0aah),a
7d67 dba9      in      a,(0a9h)
7d69 e602      and     02h
7d6b 281a      jr      z,7d87h
7d6d cb92      res     2,d
7d6f dd7206    ld      (ix+06h),d
7d72 dd360800  ld      (ix+08h),00h
7d76 dd360901  ld      (ix+09h),01h
7d7a cde277    call    77e2h
7d7d 3e01      ld      a,01h
7d7f 08        ex      af,af'
7d80 d2d17c    jp      nc,7cd1h
7d83 3e06      ld      a,06h
7d85 1806      jr      7d8dh
7d87 3e0a      ld      a,0ah
7d89 1802      jr      7d8dh
7d8b 3e00      ld      a,00h
7d8d 37        scf     
7d8e c33b75    jp      753bh
7d91 af        xor     a
7d92 dd7707    ld      (ix+07h),a
7d95 cb92      res     2,d
7d97 dd7206    ld      (ix+06h),d
7d9a dd360800  ld      (ix+08h),00h
7d9e dd360901  ld      (ix+09h),01h
7da2 cde277    call    77e2h
7da5 38dc      jr      c,7e83h
7da7 cdc25f    call    5fc2h
7daa dd7e18    ld      a,(ix+18h)
7dad cd3774    call    7437h
7db0 2a4df3    ld      hl,(0f34dh)
7db3 e5        push    hl
7db4 e5        push    hl
7db5 d1        pop     de
7db6 13        inc     de
7db7 3600      ld      (hl),00h
7db9 010002    ld      bc,0200h
7dbc edb0      ldir    
7dbe 21927e    ld      hl,7e92h
7dc1 d1        pop     de
7dc2 01db00    ld      bc,00dbh
7dc5 edb0      ldir    
7dc7 dd7e0d    ld      a,(ix+0dh)
7dca fd2a4df3  ld      iy,(0f34dh)
7dce fd7715    ld      (iy+15h),a
7dd1 fef8      cp      0f8h
7dd3 2006      jr      nz,7ddbh
7dd5 fd361a01  ld      (iy+1ah),01h
7dd9 1810      jr      7debh
7ddb fef9      cp      0f9h
7ddd 200c      jr      nz,7debh
7ddf fd361603  ld      (iy+16h),03h
7de3 fd3613a0  ld      (iy+13h),0a0h
7de7 fd361405  ld      (iy+14h),05h
7deb 2a4df3    ld      hl,(0f34dh)
7dee 110000    ld      de,0000h
7df1 0601      ld      b,01h
7df3 4f        ld      c,a
7df4 dd7e06    ld      a,(ix+06h)
7df7 e603      and     03h
7df9 37        scf     
7dfa dde5      push    ix
7dfc cd2e75    call    752eh
7dff dde1      pop     ix
7e01 da7b7e    jp      c,7e7bh
7e04 2a4df3    ld      hl,(0f34dh)
7e07 e5        push    hl
7e08 fde1      pop     iy
7e0a fd7e10    ld      a,(iy+10h)
7e0d 0600      ld      b,00h
7e0f 3600      ld      (hl),00h
7e11 23        inc     hl
7e12 10fb      djnz    7f0fh
7e14 87        add     a,a
7e15 c607      add     a,07h
7e17 47        ld      b,a
7e18 110100    ld      de,0001h
7e1b dd7e0d    ld      a,(ix+0dh)
7e1e c5        push    bc
7e1f d5        push    de
7e20 2a4df3    ld      hl,(0f34dh)
7e23 0601      ld      b,01h
7e25 4f        ld      c,a
7e26 dd7e06    ld      a,(ix+06h)
7e29 e603      and     03h
7e2b 37        scf     
7e2c dde5      push    ix
7e2e cd2e75    call    752eh
7e31 dde1      pop     ix
7e33 d1        pop     de
7e34 c1        pop     bc
7e35 da7b7e    jp      c,7e7bh
7e38 13        inc     de
7e39 10e0      djnz    7f1bh
7e3b 2a4df3    ld      hl,(0f34dh)
7e3e dd7e0d    ld      a,(ix+0dh)
7e41 77        ld      (hl),a
7e42 23        inc     hl
7e43 36ff      ld      (hl),0ffh
7e45 23        inc     hl
7e46 36ff      ld      (hl),0ffh
7e48 2a4df3    ld      hl,(0f34dh)
7e4b 0601      ld      b,01h
7e4d 4f        ld      c,a
7e4e 110100    ld      de,0001h
7e51 dd7e06    ld      a,(ix+06h)
7e54 e603      and     03h
7e56 37        scf     
7e57 dde5      push    ix
7e59 cd2e75    call    752eh
7e5c dde1      pop     ix
7e5e da7b7e    jp      c,7e7bh
7e61 2a4df3    ld      hl,(0f34dh)
7e64 dd7e0d    ld      a,(ix+0dh)
7e67 0601      ld      b,01h
7e69 4f        ld      c,a
7e6a 110200    ld      de,0002h
7e6d fef9      cp      0f9h
7e6f 2001      jr      nz,7e72h
7e71 13        inc     de
7e72 37        scf     
7e73 dd7e06    ld      a,(ix+06h)
7e76 e603      and     03h
7e78 c32e75    jp      752eh
7e7b f5        push    af
7e7c 0e00      ld      c,00h
7e7e dd3600c8  ld      (ix+00h),0c8h
7e82 dd7e0d    ld      a,(ix+0dh)
7e85 a7        and     a
7e86 2005      jr      nz,7e8dh
7e88 dd7101    ld      (ix+01h),c
7e8b f1        pop     af
7e8c c9        ret     
7e8d dd7102    ld      (ix+02h),c
7e90 f1        pop     af
7e91 c9        ret     
7e92 eb        ex      de,hl
7e93 fe90      cp      90h
7e95 54        ld      d,h
7e96 41        ld      b,c
7e97 4c        ld      c,h
7e98 45        ld      b,l
7e99 4e        ld      c,(hl)
7e9a 54        ld      d,h
7e9b 2e31      ld      l,31h
7e9d 00        nop     
7e9e 02        ld      (bc),a
7e9f 02        ld      (bc),a
7ea0 010002    ld      bc,0200h
7ea3 70        ld      (hl),b
7ea4 00        nop     
7ea5 d0        ret     nc
7ea6 02        ld      (bc),a
7ea7 fd02      ld      (bc),a
7ea9 00        nop     
7eaa 09        add     hl,bc
7eab 00        nop     
7eac 02        ld      (bc),a
7ead 00        nop     
7eae 00        nop     
7eaf 00        nop     
7eb0 d0        ret     nc
7eb1 ed5359c0  ld      (0c059h),de
7eb5 32dac0    ld      (0c0dah),a
7eb8 3656      ld      (hl),56h
7eba 23        inc     hl
7ebb 36c0      ld      (hl),0c0h
7ebd 311ff5    ld      sp,0f51fh
7ec0 11b5c0    ld      de,0c0b5h
7ec3 0e0f      ld      c,0fh
7ec5 cd7df3    call    0f37dh
7ec8 3c        inc     a
7ec9 ca63c0    jp      z,0c063h
7ecc 110001    ld      de,0100h
7ecf 0e1a      ld      c,1ah
7ed1 cd7df3    call    0f37dh
7ed4 210100    ld      hl,0001h
7ed7 22c3c0    ld      (0c0c3h),hl
7eda 21003f    ld      hl,3f00h
7edd 11b5c0    ld      de,0c0b5h
7ee0 0e27      ld      c,27h
7ee2 cd7df3    call    0f37dh
7ee5 c30001    jp      0100h
7ee8 58        ld      e,b
7ee9 c0        ret     nz
7eea cd0000    call    0000h
7eed 79        ld      a,c
7eee e6fe      and     0feh
7ef0 fe02      cp      02h
7ef2 c26ac0    jp      nz,0c06ah
7ef5 3adac0    ld      a,(0c0dah)
7ef8 a7        and     a
7ef9 ca2240    jp      z,4022h
7efc 118fc0    ld      de,0c08fh
7eff cd81c0    call    0c081h
7f02 0e07      ld      c,07h
7f04 cd7df3    call    0f37dh
7f07 18b4      jr      7fbdh
7f09 b9        cp      c
7f0a cbb7      res     6,a
7f0c cdf6f2    call    0f2f6h
7f0f ecfdf8    call    pe,0f8fdh
7f12 b9        cp      c
7f13 1a        ld      a,(de)
7f14 b7        or      a
7f15 c8        ret     z
7f16 d5        push    de
7f17 5f        ld      e,a
7f18 0e06      ld      c,06h
7f1a cd7df3    call    0f37dh
7f1d d1        pop     de
7f1e 13        inc     de
7f1f 18f2      jr      8013h
7f21 42        ld      b,d
7f22 6f        ld      l,a
7f23 6f        ld      l,a
7f24 74        ld      (hl),h
7f25 2065      jr      nz,7f8ch
7f27 72        ld      (hl),d
7f28 72        ld      (hl),d
7f29 6f        ld      l,a
7f2a 72        ld      (hl),d
7f2b 0d        dec     c
7f2c 0a        ld      a,(bc)
7f2d 50        ld      d,b
7f2e 72        ld      (hl),d
7f2f 65        ld      h,l
7f30 73        ld      (hl),e
7f31 73        ld      (hl),e
7f32 2061      jr      nz,7f95h
7f34 6e        ld      l,(hl)
7f35 79        ld      a,c
7f36 206b      jr      nz,7fa3h
7f38 65        ld      h,l
7f39 79        ld      a,c
7f3a 2066      jr      nz,7fa2h
7f3c 6f        ld      l,a
7f3d 72        ld      (hl),d
7f3e 2072      jr      nz,7fb2h
7f40 65        ld      h,l
7f41 74        ld      (hl),h
7f42 72        ld      (hl),d
7f43 79        ld      a,c
7f44 0d        dec     c
7f45 0a        ld      a,(bc)
7f46 00        nop     
7f47 00        nop     
7f48 4d        ld      c,l
7f49 53        ld      d,e
7f4a 58        ld      e,b
7f4b 44        ld      b,h
7f4c 4f        ld      c,a
7f4d 53        ld      d,e
7f4e 2020      jr      nz,7f70h
7f50 53        ld      d,e
7f51 59        ld      e,c
7f52 53        ld      d,e
7f53 00        nop     
7f54 00        nop     
7f55 00        nop     
7f56 00        nop     
7f57 00        nop     
7f58 00        nop     
7f59 00        nop     
7f5a 00        nop     
7f5b 00        nop     
7f5c 00        nop     
7f5d 00        nop     
7f5e 00        nop     
7f5f 00        nop     
7f60 00        nop     
7f61 00        nop     
7f62 00        nop     
7f63 00        nop     
7f64 00        nop     
7f65 00        nop     
7f66 00        nop     
7f67 00        nop     
7f68 00        nop     
7f69 00        nop     
7f6a 00        nop     
7f6b 00        nop     
7f6c 00        nop     
7f6d 37        scf     
7f6e c9        ret     
7f6f 00        nop     
7f70 00        nop     
7f71 00        nop     
7f72 00        nop     
7f73 00        nop     
7f74 00        nop     
7f75 00        nop     
7f76 00        nop     
7f77 00        nop     
7f78 00        nop     
7f79 00        nop     
7f7a 00        nop     
7f7b 00        nop     
7f7c 00        nop     
7f7d 00        nop     
7f7e 00        nop     
7f7f 00        nop     
7f80 00        nop     
7f81 00        nop     
7f82 00        nop     
7f83 00        nop     
7f84 00        nop     
7f85 00        nop     
7f86 00        nop     
7f87 00        nop     
7f88 00        nop     
7f89 00        nop     
7f8a 00        nop     
7f8b 00        nop     
7f8c 00        nop     
7f8d 00        nop     
7f8e 00        nop     
7f8f 00        nop     
7f90 00        nop     
7f91 00        nop     
7f92 00        nop     
7f93 00        nop     
7f94 00        nop     
7f95 00        nop     
7f96 00        nop     
7f97 00        nop     
7f98 00        nop     
7f99 00        nop     
7f9a 00        nop     
7f9b 00        nop     
7f9c 00        nop     
7f9d 00        nop     
7f9e 00        nop     
7f9f 00        nop     
7fa0 00        nop     
7fa1 00        nop     
7fa2 00        nop     
7fa3 00        nop     
7fa4 00        nop     
7fa5 00        nop     
7fa6 00        nop     
7fa7 00        nop     
7fa8 00        nop     
7fa9 00        nop     
7faa 00        nop     
7fab 00        nop     
7fac 00        nop     
7fad 00        nop     
7fae 00        nop     
7faf 00        nop     
7fb0 00        nop     
7fb1 00        nop     
7fb2 00        nop     
7fb3 00        nop     
7fb4 00        nop     
7fb5 00        nop     
7fb6 00        nop     
7fb7 00        nop     
7fb8 00        nop     
7fb9 00        nop     
7fba 00        nop     
7fbb 00        nop     
7fbc 00        nop     
7fbd 00        nop     
7fbe 00        nop     
7fbf 00        nop     
7fc0 00        nop     
7fc1 00        nop     
7fc2 00        nop     
7fc3 00        nop     
7fc4 00        nop     
7fc5 00        nop     
7fc6 00        nop     
7fc7 00        nop     
7fc8 00        nop     
7fc9 00        nop     
7fca 00        nop     
7fcb 00        nop     
7fcc 00        nop     
7fcd 00        nop     
7fce 00        nop     
7fcf 00        nop     
7fd0 00        nop     
7fd1 00        nop     
7fd2 00        nop     
7fd3 00        nop     
7fd4 00        nop     
7fd5 00        nop     
7fd6 00        nop     
7fd7 00        nop     
7fd8 00        nop     
7fd9 00        nop     
7fda 00        nop     
7fdb 00        nop     
7fdc 00        nop     
7fdd 00        nop     
7fde 00        nop     
7fdf 00        nop     
7fe0 00        nop     
7fe1 00        nop     
7fe2 00        nop     
7fe3 00        nop     
7fe4 00        nop     
7fe5 00        nop     
7fe6 00        nop     
7fe7 00        nop     
7fe8 00        nop     
7fe9 00        nop     
7fea 00        nop     
7feb 00        nop     
7fec 00        nop     
7fed 00        nop     
7fee 00        nop     
7fef 00        nop     
7ff0 00        nop     
7ff1 00        nop     
7ff2 00        nop     
7ff3 00        nop     
7ff4 00        nop     
7ff5 00        nop     
7ff6 00        nop     
7ff7 00        nop     
7ff8 00        nop     
7ff9 00        nop     
7ffa 00        nop     
7ffb 00        nop     
7ffc 00        nop     
7ffd 00        nop     
7ffe 00        nop     
7fff 00        nop     

Disassembled 9421 instructions.
